	.file	"general1.c"
	.section	.text.unlikely,"ax",@progbits
	.type	z900_is_store_protected, @function
z900_is_store_protected:
.LFB2129:
	.cfi_startproc
	testq	$-4608, %rdi
	movb	994(%rcx), %dil
	jne	.L2
	testb	$16, 331(%rcx)
	je	.L2
	testb	$1, 1144(%rcx)
	jne	.L2
	testb	$1, %dil
	jne	.L2
	movl	$1, %eax
	ret
.L2:
	andb	$6, %dil
	movl	$1, %eax
	jne	.L15
	testb	$2, 1144(%rcx)
	je	.L4
	movq	1056(%rcx), %rdi
	testb	$6, 994(%rdi)
	jne	.L15
.L4:
	xorl	%eax, %eax
	testb	%dl, %dl
	je	.L15
	andl	$-16, %esi
	cmpb	$-112, %sil
	jne	.L5
	testb	$1, 331(%rcx)
	jne	.L15
.L5:
	xorl	%eax, %eax
	cmpb	%sil, %dl
	setne	%al
	ret
.L15:
	ret
	.cfi_endproc
.LFE2129:
	.size	z900_is_store_protected, .-z900_is_store_protected
	.text
	.p2align 4,,15
	.type	concpy.isra.2, @function
concpy.isra.2:
.LFB3136:
	.cfi_startproc
	testl	%edx, %edx
	jne	.L97
	jmp	.L20
	.p2align 4,,10
	.p2align 3
.L98:
	addq	$1, %rsi
	movzbl	-1(%rsi), %eax
	addq	$1, %rdi
	subl	$1, %edx
	movb	%al, -1(%rdi)
	je	.L20
.L97:
	testb	$7, %dil
	jne	.L98
	movq	%rdi, %rax
	subq	%rsi, %rax
	movl	%eax, %ecx
	sarl	$31, %ecx
	xorl	%ecx, %eax
	subl	%ecx, %eax
	cmpl	$7, %eax
	jle	.L24
	cmpl	$7, %edx
	jle	.L24
	subl	$8, %edx
	movl	%edx, %r9d
	shrl	$3, %r9d
	movl	%r9d, %eax
	leaq	8(,%rax,8), %r8
	xorl	%eax, %eax
	.p2align 4,,10
	.p2align 3
.L37:
	movq	(%rsi,%rax), %rcx
	movq	%rcx, (%rdi,%rax)
	addq	$8, %rax
	cmpq	%r8, %rax
	jne	.L37
	negl	%r9d
	addq	%rax, %rdi
	addq	%rax, %rsi
	leal	(%rdx,%r9,8), %edx
	testl	%edx, %edx
	je	.L99
.L24:
	leaq	16(%rdi), %rax
	cmpq	%rax, %rsi
	leaq	16(%rsi), %rax
	setae	%cl
	cmpq	%rax, %rdi
	setae	%al
	orb	%al, %cl
	je	.L28
	cmpl	$15, %edx
	jbe	.L28
	movl	%edx, %r9d
	xorl	%eax, %eax
	xorl	%r8d, %r8d
	shrl	$4, %r9d
	movl	%r9d, %ecx
	sall	$4, %ecx
.L34:
	movdqu	(%rsi,%rax), %xmm0
	addl	$1, %r8d
	movdqu	%xmm0, (%rdi,%rax)
	addq	$16, %rax
	cmpl	%r9d, %r8d
	jb	.L34
	movl	%ecx, %eax
	addq	%rax, %rdi
	addq	%rax, %rsi
	movl	%edx, %eax
	subl	%ecx, %eax
	cmpl	%ecx, %edx
	je	.L20
	movzbl	(%rsi), %edx
	cmpl	$1, %eax
	movb	%dl, (%rdi)
	je	.L20
	movzbl	1(%rsi), %edx
	cmpl	$2, %eax
	movb	%dl, 1(%rdi)
	je	.L20
	movzbl	2(%rsi), %edx
	cmpl	$3, %eax
	movb	%dl, 2(%rdi)
	je	.L20
	movzbl	3(%rsi), %edx
	cmpl	$4, %eax
	movb	%dl, 3(%rdi)
	je	.L20
	movzbl	4(%rsi), %edx
	cmpl	$5, %eax
	movb	%dl, 4(%rdi)
	je	.L20
	movzbl	5(%rsi), %edx
	cmpl	$6, %eax
	movb	%dl, 5(%rdi)
	je	.L20
	movzbl	6(%rsi), %edx
	cmpl	$7, %eax
	movb	%dl, 6(%rdi)
	je	.L20
	movzbl	7(%rsi), %edx
	cmpl	$8, %eax
	movb	%dl, 7(%rdi)
	je	.L20
	movzbl	8(%rsi), %edx
	cmpl	$9, %eax
	movb	%dl, 8(%rdi)
	je	.L20
	movzbl	9(%rsi), %edx
	cmpl	$10, %eax
	movb	%dl, 9(%rdi)
	je	.L20
	movzbl	10(%rsi), %edx
	cmpl	$11, %eax
	movb	%dl, 10(%rdi)
	je	.L20
	movzbl	11(%rsi), %edx
	cmpl	$12, %eax
	movb	%dl, 11(%rdi)
	je	.L20
	movzbl	12(%rsi), %edx
	cmpl	$13, %eax
	movb	%dl, 12(%rdi)
	je	.L20
	movzbl	13(%rsi), %edx
	cmpl	$14, %eax
	movb	%dl, 13(%rdi)
	je	.L100
	movzbl	14(%rsi), %eax
	movb	%al, 14(%rdi)
	ret
	.p2align 4,,10
	.p2align 3
.L20:
	rep ret
	.p2align 4,,10
	.p2align 3
.L28:
	subl	$1, %edx
	leaq	1(%rdi,%rdx), %rdx
	.p2align 4,,10
	.p2align 3
.L36:
	addq	$1, %rsi
	movzbl	-1(%rsi), %eax
	addq	$1, %rdi
	cmpq	%rdx, %rdi
	movb	%al, -1(%rdi)
	jne	.L36
	rep ret
.L100:
	rep ret
.L99:
	.p2align 4,,11
	ret
	.cfi_endproc
.LFE3136:
	.size	concpy.isra.2, .-concpy.isra.2
	.p2align 4,,15
	.type	z900_logical_to_main_l, @function
z900_logical_to_main_l:
.LFB2152:
	.cfi_startproc
	pushq	%r15
	.cfi_def_cfa_offset 16
	.cfi_offset 15, -16
	movl	%esi, %r10d
	movl	%ecx, %r15d
	pushq	%r14
	.cfi_def_cfa_offset 24
	.cfi_offset 14, -24
	movl	%r8d, %r11d
	movq	%rdi, %r14
	pushq	%r13
	.cfi_def_cfa_offset 32
	.cfi_offset 13, -32
	pushq	%r12
	.cfi_def_cfa_offset 40
	.cfi_offset 12, -40
	movl	%edi, %r12d
	pushq	%rbp
	.cfi_def_cfa_offset 48
	.cfi_offset 6, -48
	shrl	$12, %r12d
	pushq	%rbx
	.cfi_def_cfa_offset 56
	.cfi_offset 3, -56
	andl	$1023, %r12d
	movq	%rdx, %rbx
	subq	$136, %rsp
	.cfi_def_cfa_offset 192
	testb	$4, 96(%rdx)
	movq	%r9, (%rsp)
	je	.L102
	cmpl	$-2, %esi
	je	.L102
.L103:
	andb	$-8, 994(%rbx)
	leal	5(%r10), %eax
	cmpl	$4, %eax
	ja	.L105
	jmp	*.L107(,%rax,8)
	.section	.rodata
	.align 8
	.align 4
.L107:
	.quad	.L489
	.quad	.L488
	.quad	.L156
	.quad	.L110
	.quad	.L111
	.text
	.p2align 4,,10
	.p2align 3
.L102:
	testb	$1, 1144(%rbx)
	jne	.L103
	movq	%r14, %rax
	movslq	%r12d, %r12
	movq	%r14, 944(%rbx)
	andb	$-8, 994(%rbx)
	andq	$-4096, %rax
	movq	%r14, %r13
	movq	%rax, 960(%rbx)
	andq	$-4194304, %r13
	leaq	(%rbx,%r12,8), %rax
	movq	$-1, 2232(%rax)
	movl	2224(%rbx), %edx
	movq	%r13, 18616(%rax)
	orq	%r13, %rdx
	movq	%rdx, 10424(%rax)
	movb	$0, 45240(%rbx,%r12)
	movb	$0, 44216(%rbx,%r12)
	movb	$0, 46264(%rbx,%r12)
	movzbl	994(%rbx), %eax
.L104:
	testb	$6, %al
	je	.L215
	testb	$3, %r15b
	jne	.L216
.L215:
	movq	944(%rbx), %rbp
	movl	88(%rbx), %eax
	movq	%rbp, %rdx
	andq	$-8192, %rdx
	je	.L218
	cmpq	%rax, %rdx
	je	.L218
.L219:
	movq	960(%rbx), %r8
	movq	%rbp, 952(%rbx)
	movq	%r8, %rdx
	andq	$-8192, %rdx
	je	.L220
	cmpq	%rax, %rdx
	je	.L220
.L221:
	cmpq	1040(%rbx), %rbp
	ja	.L222
	movzbl	1144(%rbx), %r9d
	testb	$2, %r9b
	jne	.L490
.L223:
	movq	%rbp, %r13
	shrq	$11, %r13
	addq	1032(%rbx), %r13
	testb	$1, %r9b
	movq	%r13, 984(%rbx)
	jne	.L491
	testb	$4, %r15b
	je	.L235
	testb	%r11b, %r11b
	movzbl	0(%r13), %eax
	jne	.L492
.L236:
	leaq	(%rbx,%r12,8), %rdx
	orl	$4, %eax
	andq	$-4096, %r14
	movb	%al, 0(%r13)
	movq	984(%rbx), %rax
	movq	%rax, 35000(%rdx)
	movzbl	(%rax), %eax
	movb	$4, 46264(%rbx,%r12)
	andl	$-16, %eax
	movb	%al, 43192(%rbx,%r12)
	movq	1024(%rbx), %rax
	addq	%rax, %r8
	xorq	%r14, %r8
	movq	%r8, 26808(%rdx)
.L248:
	addq	%rbp, %rax
.L477:
	addq	$136, %rsp
	.cfi_remember_state
	.cfi_def_cfa_offset 56
	popq	%rbx
	.cfi_def_cfa_offset 48
	popq	%rbp
	.cfi_def_cfa_offset 40
	popq	%r12
	.cfi_def_cfa_offset 32
	popq	%r13
	.cfi_def_cfa_offset 24
	popq	%r14
	.cfi_def_cfa_offset 16
	popq	%r15
	.cfi_def_cfa_offset 8
	ret
	.p2align 4,,10
	.p2align 3
.L220:
	.cfi_restore_state
	xorq	%rax, %r8
	jmp	.L221
	.p2align 4,,10
	.p2align 3
.L218:
	xorq	%rax, %rbp
	jmp	.L219
	.p2align 4,,10
	.p2align 3
.L105:
	movzbl	99(%rbx), %eax
	cmpb	$64, %al
	je	.L117
	testb	$1, 1144(%rbx)
	jne	.L493
.L118:
	cmpl	$15, %r10d
	jg	.L117
	cmpb	$-128, %al
	je	.L488
	cmpb	$-64, %al
	.p2align 4,,3
	je	.L489
	.p2align 4,,10
	.p2align 3
.L156:
	movq	336(%rbx), %rdx
	movl	$0, 976(%rbx)
	testl	$288, %edx
	movq	%rdx, 968(%rbx)
	setne	%cl
.L116:
	movzbl	994(%rbx), %eax
	movq	%r14, %r13
	movslq	%r12d, %r12
	leaq	(%rbx,%r12,8), %rbp
	andq	$-4194304, %r13
	andl	$-2, %eax
	orl	%ecx, %eax
	movl	2224(%rbx), %ecx
	movb	%al, 994(%rbx)
	orq	%r13, %rcx
	cmpq	10424(%rbp), %rcx
	je	.L494
.L159:
	testb	$32, %dl
	je	.L162
	testl	$512, %r15d
	jne	.L272
	movl	%r15d, %eax
	andl	$1024, %eax
	jne	.L164
	movq	%r14, %rsi
	xorl	%ecx, %ecx
	xorl	%r8d, %r8d
	andq	$-4096, %rsi
.L165:
	testl	$512, %esi
	je	.L199
.L198:
	orb	$2, 994(%rbx)
.L199:
	testl	$256, %r15d
	jne	.L161
	movq	968(%rbx), %rdx
	shrq	$4, %r8
	andl	$1, %r8d
	movq	%rdx, 2232(%rbp)
	movl	2224(%rbx), %edx
	movq	%rsi, 18616(%rbp)
	orq	%r13, %rdx
	movq	%rdx, 10424(%rbp)
	movb	%r8b, 44216(%rbx,%r12)
	movzbl	994(%rbx), %edx
	movb	$0, 46264(%rbx,%r12)
	shrb	%dl
	andl	$3, %edx
	movb	%dl, 45240(%rbx,%r12)
	movq	$0, 26808(%rbp)
	jmp	.L161
	.p2align 4,,10
	.p2align 3
.L488:
	movq	384(%rbx), %rdx
	movl	$2, 976(%rbx)
	testl	$288, %edx
	movq	%rdx, 968(%rbx)
	setne	%cl
	jmp	.L116
	.p2align 4,,10
	.p2align 3
.L489:
	movq	432(%rbx), %rdx
	movl	$3, 976(%rbx)
	testl	$288, %edx
	movq	%rdx, 968(%rbx)
	setne	%cl
	jmp	.L116
	.p2align 4,,10
	.p2align 3
.L111:
	movl	1908(%rbx), %eax
	cmpl	$1, %eax
	je	.L113
	xorl	%edx, %edx
	cmpl	$13, %eax
	sete	%dl
	leal	(%rdx,%rdx,2), %edx
	movl	%edx, 976(%rbx)
.L115:
	addl	$1, %eax
	cltq
	movq	320(%rbx,%rax,8), %rdx
	testl	$288, %edx
	movq	%rdx, 968(%rbx)
	setne	%cl
	jmp	.L116
	.p2align 4,,10
	.p2align 3
.L110:
	movl	$0, 976(%rbx)
	movl	$1, %ecx
	movq	$-1, %rdx
	movq	$-1, 968(%rbx)
	jmp	.L116
	.p2align 4,,10
	.p2align 3
.L162:
	movl	%edx, %eax
	movq	%r14, %rsi
	movl	%edx, %edi
	shrq	$50, %rsi
	andl	$12, %eax
	andw	$16376, %si
	cmpb	$11, %al
	ja	.L289
	testw	%si, %si
	je	.L289
.L166:
	movl	$56, %esi
	movw	%si, 992(%rbx)
	movl	$56, %esi
.L204:
	testl	$1024, %r15d
	je	.L268
.L214:
	movq	%rbx, %rdi
	call	*2032(%rbx)
	xorl	%eax, %eax
	jmp	.L477
	.p2align 4,,10
	.p2align 3
.L289:
	movq	%r14, %rcx
	shrq	$39, %rcx
	andw	$16376, %cx
	cmpb	$7, %al
	ja	.L290
	testw	%cx, %cx
	jne	.L166
.L290:
	movq	%r14, %r8
	shrq	$28, %r8
	andw	$16376, %r8w
	cmpb	$3, %al
	ja	.L291
	testw	%r8w, %r8w
	jne	.L166
.L291:
	movq	%r14, %r9
	andq	$-4096, %rdx
	andl	$3, %edi
	shrq	$17, %r9
	andw	$16376, %r9w
	cmpb	$8, %al
	je	.L171
	cmpb	$12, %al
	je	.L172
	cmpb	$4, %al
	je	.L495
	movzwl	%r9w, %eax
	shrw	$12, %r9w
	addq	%rax, %rdx
.L265:
	movzbl	%dil, %edi
	cmpw	%di, %r9w
	ja	.L184
	cmpq	%rdx, 1040(%rbx)
	jae	.L496
.L175:
	movl	$5, %ebp
	movl	$5, %esi
	movw	%bp, 992(%rbx)
	jmp	.L201
	.p2align 4,,10
	.p2align 3
.L493:
	movq	1064(%rbx), %rdx
	movq	1080(%rdx), %rcx
	testb	$1, 2(%rcx)
	je	.L118
	testb	$64, 99(%rdx)
	je	.L118
	.p2align 4,,10
	.p2align 3
.L117:
	movl	%r10d, %r13d
	andl	$15, %r13d
	je	.L156
	movzbl	1144(%rbx), %r9d
	testb	$1, %r9b
	jne	.L497
	movslq	%r13d, %rax
	movl	584(%rbx,%rax,4), %ebp
	movq	%rax, 8(%rsp)
.L122:
	testl	%ebp, %ebp
	je	.L156
	cmpl	$1, %ebp
	je	.L488
	leal	5(%r13), %eax
	cltq
	leaq	(%rbx,%rax,4), %rax
	movq	%rax, 16(%rsp)
	movl	1892(%rax), %eax
	cmpl	$15, %eax
	jle	.L125
	addl	$1, %eax
	cltq
	movq	320(%rbx,%rax,8), %rdx
	movq	8(%rsp), %rax
	movq	%rdx, 968(%rbx)
	movzbl	2009(%rbx,%rax), %eax
	movl	$1, 976(%rbx)
	andl	$3, %eax
	leal	(%rax,%rax), %ecx
	movzbl	994(%rbx), %eax
	andl	$-7, %eax
	orl	%ecx, %eax
	testl	$288, %edx
	movb	%al, 994(%rbx)
	setne	%cl
	jmp	.L116
	.p2align 4,,10
	.p2align 3
.L494:
	cmpb	$0, 44216(%rbx,%r12)
	jne	.L157
	cmpq	%rdx, 2232(%rbp)
	jne	.L159
.L158:
	testl	$256, %r15d
	jne	.L159
	movzbl	45240(%rbx,%r12), %eax
	movq	18616(%rbp), %rsi
	testb	%al, %al
	je	.L482
	andl	$3, %eax
	leal	(%rax,%rax), %edx
	movzbl	994(%rbx), %eax
	andl	$-7, %eax
	orl	%edx, %eax
	movb	%al, 994(%rbx)
.L482:
	movl	%r15d, %eax
	xorl	%ecx, %ecx
	andl	$512, %eax
.L161:
	testl	%eax, %eax
	jne	.L200
	movq	%r14, %rcx
	andq	$-4096, %rsi
	andl	$4095, %ecx
	movq	%rsi, 960(%rbx)
	orq	%rsi, %rcx
.L200:
	movq	%rcx, 944(%rbx)
.L483:
	xorl	%eax, %eax
	movw	%ax, 992(%rbx)
.L484:
	movzbl	994(%rbx), %eax
	jmp	.L104
	.p2align 4,,10
	.p2align 3
.L272:
	xorl	%edx, %edx
.L163:
	movl	$18, %r11d
	movl	$18, %esi
	movw	%r11w, 992(%rbx)
.L201:
	testl	$4096, %r15d
	jne	.L214
	movq	%rbx, %rdi
	movl	%r10d, 8(%rsp)
	movq	%rdx, (%rsp)
	call	*2032(%rbx)
	movl	8(%rsp), %r10d
	movq	(%rsp), %rdx
.L185:
	testl	$1024, %r15d
	je	.L202
.L486:
	movq	%rdx, 944(%rbx)
	movzwl	992(%rbx), %esi
	jmp	.L214
.L202:
	movl	$16, %r8d
	movq	%rdx, 944(%rbx)
	movw	%r8w, 992(%rbx)
	.p2align 4,,10
	.p2align 3
.L268:
	movslq	976(%rbx), %rax
	andq	$-4096, %r14
	movq	%r14, 792(%rbx)
	cmpl	$1, %eax
	je	.L498
	orq	%r14, %rax
	movq	%rax, 792(%rbx)
.L206:
	testb	$4, %r15b
	je	.L209
	orb	$8, %ah
	movq	%rax, 792(%rbx)
.L210:
	cmpb	$64, 99(%rbx)
	je	.L211
	testb	$1, 1144(%rbx)
	je	.L487
	movq	1064(%rbx), %rax
	movq	1080(%rax), %rdx
	testb	$1, 2(%rdx)
	je	.L487
	testb	$64, 99(%rax)
	je	.L487
.L211:
	xorl	%eax, %eax
	testl	%r10d, %r10d
	cmovns	%r10d, %eax
	movb	%al, 1012(%rbx)
.L487:
	movzwl	992(%rbx), %esi
	jmp	.L214
	.p2align 4,,10
	.p2align 3
.L157:
	testb	$1, %al
	jne	.L159
	jmp	.L158
	.p2align 4,,10
	.p2align 3
.L164:
	movl	$19, %r9d
	movl	$19, %esi
	xorl	%edx, %edx
	movw	%r9w, 992(%rbx)
	jmp	.L201
.L498:
	movq	968(%rbx), %rdx
	movq	%r14, %rax
	movq	%rdx, %rcx
	xorq	336(%rbx), %rcx
	testq	$-4096, %rcx
	je	.L206
	movq	%rdx, %rcx
	xorq	384(%rbx), %rcx
	testq	$-4096, %rcx
	jne	.L207
	orq	$2, %rax
	movq	%rax, 792(%rbx)
	jmp	.L206
	.p2align 4,,10
	.p2align 3
.L216:
	movzbl	1144(%rbx), %r9d
	andq	$-4096, %r14
.L269:
	movq	%r14, %rcx
	shrb	%al
	orq	$4, %rcx
	testb	$2, %al
	movq	%rcx, 792(%rbx)
	je	.L258
	movq	%r14, %rcx
	orq	$12, %rcx
	.p2align 4,,10
	.p2align 3
.L258:
	movslq	976(%rbx), %rdx
	xorl	%eax, %eax
	orq	%rcx, %rdx
	testl	%r10d, %r10d
	cmovns	%r10d, %eax
	andl	$2, %r9d
	movq	%rdx, 792(%rbx)
	movb	%al, 1012(%rbx)
	jne	.L499
.L259:
	movl	$4, %esi
	movq	%rbx, %rdi
	call	*2032(%rbx)
	movzwl	992(%rbx), %esi
	jmp	.L214
	.p2align 4,,10
	.p2align 3
.L222:
	movl	$5, %esi
	movq	%rbx, %rdi
	movl	%r10d, (%rsp)
	call	*2032(%rbx)
	movzbl	994(%rbx), %eax
	movzbl	1144(%rbx), %r9d
	movl	(%rsp), %r10d
	movl	%eax, %edx
	andl	$6, %edx
.L240:
	andq	$-4096, %r14
	testb	%dl, %dl
	movq	%r14, 792(%rbx)
	movq	%r14, %rcx
	je	.L258
	andb	$3, %r15b
	je	.L258
	jmp	.L269
	.p2align 4,,10
	.p2align 3
.L113:
	movl	$0, 976(%rbx)
	jmp	.L115
	.p2align 4,,10
	.p2align 3
.L209:
	andl	$3, %r15d
	je	.L210
	orb	$4, %ah
	movq	%rax, 792(%rbx)
	jmp	.L210
.L497:
	movq	1064(%rbx), %rax
	movq	1080(%rax), %rdx
	testb	$1, 2(%rdx)
	je	.L156
	testb	$64, 99(%rax)
	je	.L156
	movslq	%r13d, %rdi
	movq	%rdi, 8(%rsp)
	movl	584(%rax,%rdi,4), %ebp
	jmp	.L122
.L125:
	movzwl	394(%rbx), %eax
	testl	$-33554432, %ebp
	movw	%ax, 24(%rsp)
	je	.L500
.L126:
	movl	$40, %eax
	movl	$40, %esi
	movw	%ax, 992(%rbx)
.L154:
	movb	%r10b, 1012(%rbx)
	jmp	.L214
.L495:
	movl	%r8d, %eax
	shrw	$12, %ax
.L264:
	movzbl	%dil, %edi
	cmpw	%di, %ax
	ja	.L181
	movzwl	%r8w, %r8d
	addq	%r8, %rdx
	cmpq	1040(%rbx), %rdx
	ja	.L175
	movq	%rdx, %rdi
	movq	%rbx, %rsi
	movl	%r11d, 32(%rsp)
	movl	%r10d, 24(%rsp)
	movl	%r9d, 16(%rsp)
	movq	%rdx, 8(%rsp)
	call	z900_fetch_main_absolute
	movq	8(%rsp), %rdx
	movq	(%rax), %rdi
	movl	16(%rsp), %r9d
	movl	24(%rsp), %r10d
	movl	32(%rsp), %r11d
	bswap	%rdi
	testb	$32, %dil
	jne	.L182
	movq	%rdi, %rax
	andl	$12, %eax
	cmpq	$4, %rax
	jne	.L163
	cmpb	$0, 2049(%rbx)
	js	.L501
.L183:
	movq	%rdi, %rdx
	movzwl	%r9w, %eax
	shrw	$12, %r9w
	andq	$-4096, %rdx
	addq	%rax, %rdx
	movq	%rdi, %rax
	andl	$192, %eax
	shrq	$6, %rax
	cmpw	%ax, %r9w
	jae	.L502
.L184:
	movl	$16, %edi
	movq	%rdx, 944(%rbx)
	movl	$16, %esi
	movw	%di, 992(%rbx)
	jmp	.L204
.L172:
	movl	%esi, %eax
	movzbl	%dil, %edi
	shrw	$12, %ax
	cmpw	%ax, %di
	jb	.L174
	movzwl	%si, %esi
	addq	%rsi, %rdx
	cmpq	1040(%rbx), %rdx
	ja	.L175
	movq	%rdx, %rdi
	movq	%rbx, %rsi
	movl	%r11d, 40(%rsp)
	movl	%r10d, 36(%rsp)
	movl	%r9d, 32(%rsp)
	movl	%r8d, 24(%rsp)
	movl	%ecx, 16(%rsp)
	movq	%rdx, 8(%rsp)
	call	z900_fetch_main_absolute
	movq	8(%rsp), %rdx
	movq	(%rax), %rdi
	movl	16(%rsp), %ecx
	movl	24(%rsp), %r8d
	movl	32(%rsp), %r9d
	bswap	%rdi
	testb	$32, %dil
	movl	36(%rsp), %r10d
	movl	40(%rsp), %r11d
	jne	.L176
	movq	%rdi, %rax
	andl	$12, %eax
	cmpq	$12, %rax
	jne	.L163
	cmpb	$0, 2049(%rbx)
	js	.L503
.L177:
	movq	%rdi, %rdx
	movl	%ecx, %eax
	andl	$192, %edx
	shrw	$12, %ax
	shrq	$6, %rdx
	cmpw	%dx, %ax
	jae	.L504
.L178:
	movl	$58, %edx
	movl	$58, %esi
	movw	%dx, 992(%rbx)
	jmp	.L204
.L171:
	movl	%ecx, %eax
	shrw	$12, %ax
.L263:
	movzbl	%dil, %edi
	cmpw	%ax, %di
	jb	.L178
	movzwl	%cx, %ecx
	addq	%rcx, %rdx
	cmpq	1040(%rbx), %rdx
	ja	.L175
	movq	%rdx, %rdi
	movq	%rbx, %rsi
	movl	%r11d, 36(%rsp)
	movl	%r10d, 32(%rsp)
	movl	%r9d, 24(%rsp)
	movl	%r8d, 16(%rsp)
	movq	%rdx, 8(%rsp)
	call	z900_fetch_main_absolute
	movq	8(%rsp), %rdx
	movq	(%rax), %rdi
	movl	16(%rsp), %r8d
	movl	24(%rsp), %r9d
	movl	32(%rsp), %r10d
	bswap	%rdi
	testb	$32, %dil
	movl	36(%rsp), %r11d
	jne	.L179
	movq	%rdi, %rax
	andl	$12, %eax
	cmpq	$8, %rax
	jne	.L163
	cmpb	$0, 2049(%rbx)
	js	.L505
.L180:
	movq	%rdi, %rdx
	movl	%r8d, %eax
	andl	$192, %edx
	shrw	$12, %ax
	shrq	$6, %rdx
	cmpw	%dx, %ax
	jae	.L506
.L181:
	movl	$59, %eax
	movl	$59, %esi
	movw	%ax, 992(%rbx)
	jmp	.L204
.L207:
	xorq	432(%rbx), %rdx
	testq	$-4096, %rdx
	jne	.L208
	orq	$3, %rax
	movq	%rax, 792(%rbx)
	jmp	.L206
.L500:
	testl	$16777216, %ebp
	je	.L127
	movl	368(%rbx), %eax
	andl	$2147483584, %eax
.L128:
	movl	%eax, %edx
	cmpq	1040(%rbx), %rdx
	ja	.L129
	andq	$-8192, %rdx
	je	.L130
	movl	88(%rbx), %ecx
	cmpq	%rcx, %rdx
	je	.L130
.L131:
	addl	$16, %eax
	testb	$2, %r9b
	jne	.L507
.L132:
	movq	%rax, %rdx
	shrq	$11, %rdx
	addq	1032(%rbx), %rdx
	orb	$4, (%rdx)
	movq	1024(%rbx), %rdx
	movl	(%rdx,%rax), %eax
	movzwl	%bp, %edx
	movl	%edx, %ecx
	shrl	$3, %ecx
	bswap	%eax
	movl	%eax, %esi
	andl	$127, %esi
	cmpl	%ecx, %esi
	jae	.L508
.L133:
	movl	$41, %eax
	movl	$41, %esi
	movw	%ax, 992(%rbx)
	jmp	.L154
.L174:
	movl	$57, %ecx
	movl	$57, %esi
	movw	%cx, 992(%rbx)
	jmp	.L204
.L129:
	movl	$5, %eax
	movl	$5, %esi
	movq	%rbx, %rdi
	movw	%ax, 992(%rbx)
	movl	%r10d, (%rsp)
	call	*2032(%rbx)
	movl	(%rsp), %r10d
	jmp	.L126
.L208:
	orq	$1, %rax
	movq	%rax, 792(%rbx)
	jmp	.L206
.L127:
	movl	344(%rbx), %eax
	andl	$2147483584, %eax
	jmp	.L128
.L130:
	xorl	88(%rbx), %eax
	jmp	.L131
.L508:
	andl	$2147483520, %eax
	sall	$4, %edx
	addl	%edx, %eax
	movl	%eax, %edi
	cmpq	1040(%rbx), %rdi
	ja	.L129
	movq	%rdi, %rcx
	andq	$-8192, %rcx
	je	.L134
	movl	88(%rbx), %edx
	cmpq	%rdx, %rcx
	je	.L134
.L135:
	movq	%rbx, %rsi
	movl	%r11d, 36(%rsp)
	movl	%r10d, 32(%rsp)
	call	z900_fetch_main_absolute
	movl	32(%rsp), %r10d
	xorl	%edx, %edx
	movl	36(%rsp), %r11d
.L137:
	movl	(%rax,%rdx), %ecx
	bswap	%ecx
	movl	%ecx, 48(%rsp,%rdx)
	addq	$4, %rdx
	cmpq	$16, %rdx
	jne	.L137
	movl	48(%rsp), %eax
	testl	%eax, %eax
	movl	%eax, 32(%rsp)
	js	.L133
	movl	%r15d, %eax
	andl	$2048, %eax
	movl	%eax, 36(%rsp)
	jne	.L138
	xorl	32(%rsp), %ebp
	andl	$16711680, %ebp
	je	.L138
.L139:
	movw	$42, 992(%rbx)
	movl	$42, %esi
	jmp	.L154
.L176:
	testl	$1024, %r15d
	je	.L174
	orq	$3, %rdx
	jmp	.L486
.L496:
	movq	%rdx, %rdi
	movq	%rbx, %rsi
	movl	%r11d, 24(%rsp)
	movl	%r10d, 16(%rsp)
	movq	%rdx, 8(%rsp)
	call	z900_fetch_main_absolute
	movq	8(%rsp), %rdx
	movq	(%rax), %r8
	movl	16(%rsp), %r10d
	movl	24(%rsp), %r11d
	bswap	%r8
	testb	$32, %r8b
	jne	.L185
	testb	$12, %r8b
	jne	.L163
	movzbl	994(%rbx), %eax
	testb	$1, %al
	je	.L186
	testb	$16, %r8b
	jne	.L163
.L186:
	movzbl	2049(%rbx), %esi
	testb	%sil, %sil
	js	.L509
.L187:
	movq	%r14, %rcx
	movq	%r8, %rdi
	shrq	$9, %rcx
	andq	$-2048, %rdi
	andl	$2040, %ecx
	addq	%rdi, %rcx
	testl	$1024, %r15d
	je	.L194
	andl	$512, %r8d
	testb	%sil, %sil
	movq	%rcx, 944(%rbx)
	movw	$0, 992(%rbx)
	js	.L510
.L195:
	testq	%r8, %r8
	je	.L104
	xorl	%esi, %esi
	jmp	.L214
.L491:
	movq	%rbp, %rax
	addq	1024(%rbx), %rax
	jmp	.L477
.L235:
	movzbl	0(%r13), %eax
	movzbl	%r11b, %edx
	movq	%rbx, %rcx
	movq	%r14, %rdi
	movl	%r9d, 32(%rsp)
	movl	%r10d, 24(%rsp)
	movq	%r8, 16(%rsp)
	movzbl	%al, %esi
	movb	%al, 8(%rsp)
	call	z900_is_store_protected
	movq	16(%rsp), %r8
	testl	%eax, %eax
	movl	24(%rsp), %r10d
	movl	32(%rsp), %r9d
	jne	.L239
	testb	$2, %r9b
	jne	.L511
.L243:
	testb	$2, %r15b
	je	.L245
	movzbl	8(%rsp), %eax
	orl	$6, %eax
	movb	%al, 0(%r13)
.L245:
	movq	984(%rbx), %rax
	leaq	(%rbx,%r12,8), %rdx
	movq	%rax, 35000(%rdx)
	movzbl	(%rax), %eax
	andl	$-16, %eax
	cmpq	$8191, %r14
	movb	%al, 43192(%rbx,%r12)
	ja	.L246
	testb	$1, 994(%rbx)
	movl	$4, %eax
	je	.L247
.L246:
	movl	%r15d, %eax
	orl	$5, %eax
.L247:
	movb	%al, 46264(%rbx,%r12)
	movq	1024(%rbx), %rax
	movq	%r14, %rcx
	andq	$-4096, %rcx
	addq	%rax, %r8
	xorq	%rcx, %r8
	movq	%r8, 26808(%rdx)
	testb	$4, 808(%rbx)
	je	.L248
	testb	$32, 54(%rbx)
	je	.L248
	movb	$4, 46264(%rbx,%r12)
	cmpl	$-2, %r10d
	je	.L248
	testb	$4, 96(%rbx)
	je	.L249
	testb	$-128, 968(%rbx)
	jne	.L250
	testb	$32, 402(%rbx)
	jne	.L248
.L250:
	xorl	%edx, %edx
	testl	%r10d, %r10d
	cmovns	%r10d, %edx
	movb	%dl, 1160(%rbx)
	movl	976(%rbx), %edx
	orw	%dx, 1146(%rbx)
.L249:
	movq	416(%rbx), %rcx
	movq	408(%rbx), %rdx
	cmpq	%rdx, %rcx
	jb	.L251
	cmpq	%rdx, %r14
	jb	.L252
	cmpq	%rcx, %r14
	movl	$1, %edi
	jbe	.L257
	movq	(%rsp), %rdi
	leaq	-1(%r14,%rdi), %rsi
	cmpq	%rsi, %rdx
	ja	.L254
.L270:
	cmpq	%rsi, %rcx
	movl	$1, %edi
	jae	.L257
	xorl	%edi, %edi
	cmpq	%rdx, %r14
	setbe	%dil
.L257:
	andl	$1, %edi
	testb	%dil, %dil
	je	.L248
	orl	$2097152, 56(%rbx)
	jmp	.L248
.L490:
	movq	1056(%rbx), %rdx
	andb	$-7, 994(%rdx)
	testb	$4, %r9b
	jne	.L223
	testl	%r10d, %r10d
	movl	$-3, %esi
	jle	.L224
	movq	1080(%rbx), %rax
	testb	$1, 2(%rax)
	je	.L224
	testb	$64, 99(%rbx)
	cmovne	%r10d, %esi
.L224:
	movq	%rbp, %rdi
	xorl	%ecx, %ecx
	movl	%r11d, 16(%rsp)
	addq	1096(%rbx), %rdi
	movl	%r10d, 8(%rsp)
	call	z900_translate_addr
	movl	8(%rsp), %r10d
	testl	%eax, %eax
	movl	16(%rsp), %r11d
	jne	.L512
.L225:
	movzbl	994(%rbx), %edx
	movq	1056(%rbx), %rax
	movl	%edx, %ecx
	andl	$-7, %edx
	orb	994(%rax), %cl
	andl	$6, %ecx
	orl	%ecx, %edx
	movb	%dl, 994(%rbx)
	movzbl	994(%rax), %edx
	shrb	%dl
	andl	$3, %edx
	orb	%dl, 45240(%rbx,%r12)
	testb	$4, 96(%rbx)
	je	.L226
	cmpl	$-2, %r10d
	je	.L226
.L227:
	testl	%r10d, %r10d
	jle	.L228
	movq	1080(%rbx), %rcx
	testb	$1, 2(%rcx)
	je	.L228
	testb	$64, 99(%rbx)
	je	.L228
	movq	968(%rbx), %rcx
	leal	5(%r10), %edi
	leal	16(%r10), %r8d
	movslq	%edi, %rdi
	movq	%rcx, 2232(%rbx,%r12,8)
	movzbl	994(%rax), %esi
	movzbl	994(%rbx), %ecx
	andl	$1, %esi
	andl	$-2, %ecx
	orl	%esi, %ecx
	movb	%cl, 994(%rbx)
	movq	968(%rax), %rcx
	leal	17(%r10), %esi
	movslq	%esi, %rsi
	xorb	$8, %ch
	testl	$288, %ecx
	movq	%rcx, 968(%rbx)
	movq	%rcx, 320(%rbx,%rsi,8)
	movslq	%r10d, %rcx
	movl	%r8d, 1892(%rbx,%rdi,4)
	sete	1976(%rbx,%rsi)
	andl	$2, %edx
	movb	%dl, 2009(%rbx,%rcx)
.L228:
	movq	944(%rax), %rbp
	movl	88(%rax), %edx
	movq	%rbp, %rcx
	andq	$-8192, %rcx
	je	.L229
	cmpq	%rdx, %rcx
	je	.L229
.L230:
	movq	960(%rax), %r8
	movq	%rbp, 952(%rax)
	movq	%r8, %rcx
	andq	$-8192, %rcx
	je	.L231
	cmpq	%rdx, %rcx
	je	.L231
.L232:
	cmpq	1040(%rax), %rbp
	ja	.L222
	movzbl	1144(%rbx), %r9d
	jmp	.L223
.L492:
	movl	%eax, %edx
	andl	$-16, %edx
	cmpb	%dl, %r11b
	je	.L236
	testb	$8, %al
	je	.L236
	cmpq	$2047, %r14
	ja	.L238
	testb	$2, 331(%rbx)
	je	.L238
	testb	$1, 994(%rbx)
	je	.L236
.L238:
	cmpb	$-112, %dl
	je	.L513
.L239:
	testb	$2, %r9b
	jne	.L514
.L485:
	movzbl	994(%rbx), %eax
	movl	%eax, %edx
	andl	$6, %edx
	jmp	.L240
.L179:
	testl	$1024, %r15d
	je	.L178
	orq	$2, %rdx
	movzwl	992(%rbx), %esi
	movq	%rdx, 944(%rbx)
	jmp	.L214
.L182:
	testl	$1024, %r15d
	je	.L181
	orq	$1, %rdx
	movzwl	992(%rbx), %esi
	movq	%rdx, 944(%rbx)
	jmp	.L214
.L231:
	xorq	%rdx, %r8
	jmp	.L232
.L229:
	xorq	%rdx, %rbp
	jmp	.L230
.L226:
	movq	%r13, 18616(%rbx,%r12,8)
	jmp	.L227
.L513:
	testb	$1, 331(%rbx)
	je	.L239
	jmp	.L236
.L138:
	movl	56(%rsp), %eax
	andl	$2147483584, %eax
	movl	%eax, %edi
	movq	%rdi, %rcx
	andq	$-8192, %rcx
	je	.L140
	movl	88(%rbx), %edx
	cmpq	%rdx, %rcx
	je	.L140
.L141:
	cmpq	1040(%rbx), %rdi
	ja	.L129
	movq	%rbx, %rsi
	movl	%r11d, 44(%rsp)
	movl	%r10d, 40(%rsp)
	call	z900_fetch_main_absolute
	movl	40(%rsp), %r10d
	xorl	%edx, %edx
	movl	44(%rsp), %r11d
.L143:
	movl	(%rax,%rdx), %ecx
	bswap	%ecx
	movl	%ecx, 64(%rsp,%rdx)
	addq	$4, %rdx
	cmpq	$64, %rdx
	jne	.L143
	movl	64(%rsp), %eax
	testl	%eax, %eax
	js	.L144
	movl	60(%rsp), %edi
	cmpl	%edi, 84(%rsp)
	je	.L515
.L145:
	movw	$44, 992(%rbx)
	movl	$44, %esi
	jmp	.L154
.L134:
	movl	%eax, %edi
	xorl	88(%rbx), %edi
	jmp	.L135
.L510:
	testb	$-128, 330(%rbx)
	je	.L195
	xorl	%esi, %esi
	testb	$6, %al
	jne	.L214
	jmp	.L195
.L514:
	movq	1056(%rbx), %rax
	andb	$-7, 994(%rax)
	jmp	.L485
.L499:
	movq	1056(%rbx), %rcx
	testb	$6, 994(%rcx)
	je	.L259
	movl	$4, %esi
	movq	%rdx, 792(%rcx)
	movq	%rcx, %rdi
	movb	%al, 1012(%rcx)
	call	*2032(%rcx)
	movzwl	992(%rbx), %esi
	jmp	.L214
.L502:
	andl	$3, %edi
	jmp	.L265
.L501:
	testb	$-128, 330(%rbx)
	je	.L183
	testl	$512, %edi
	je	.L183
	orb	$2, 994(%rbx)
	jmp	.L183
.L506:
	movq	%rdi, %rdx
	andl	$3, %edi
	andq	$-4096, %rdx
	jmp	.L264
.L505:
	testb	$-128, 330(%rbx)
	je	.L180
	testl	$512, %edi
	je	.L180
	orb	$2, 994(%rbx)
	jmp	.L180
.L254:
	xorl	%edi, %edi
	cmpq	%rdx, %r14
	ja	.L257
.L271:
	xorl	%edi, %edi
	cmpq	%rsi, %rcx
	setbe	%dil
	jmp	.L257
.L252:
	movq	(%rsp), %rdi
	leaq	-1(%r14,%rdi), %rsi
	cmpq	%rsi, %rdx
	jbe	.L270
	jmp	.L271
.L251:
	movq	(%rsp), %rdi
	leaq	-1(%r14,%rdi), %rsi
	movl	$1, %edi
	cmpq	%rsi, %rdx
	jbe	.L257
	xorl	%edi, %edi
	cmpq	%rcx, %r14
	setbe	%dil
	jmp	.L257
.L511:
	movq	1056(%rbx), %rax
	testb	$6, 994(%rax)
	je	.L243
	jmp	.L485
.L512:
	movq	1056(%rbx), %rax
	movzwl	992(%rax), %esi
	movq	%rax, %rdi
	call	*2032(%rax)
	movl	16(%rsp), %r11d
	movl	8(%rsp), %r10d
	jmp	.L225
.L507:
	andb	$4, %r9b
	jne	.L132
	addq	1096(%rbx), %rax
	movl	$1, %r9d
	xorl	%r8d, %r8d
	movl	$4, %ecx
	movl	$-3, %esi
	movl	%r11d, 36(%rsp)
	movq	1056(%rbx), %rdx
	movl	%r10d, 32(%rsp)
	movq	%rax, %rdi
	call	z900_logical_to_main_l
	movq	1056(%rbx), %rax
	movl	36(%rsp), %r11d
	movl	32(%rsp), %r10d
	movq	952(%rax), %rax
	jmp	.L132
.L504:
	movq	%rdi, %rdx
	andl	$3, %edi
	andq	$-4096, %rdx
	jmp	.L263
.L503:
	testb	$-128, 330(%rbx)
	je	.L177
	testl	$512, %edi
	je	.L177
	orb	$2, 994(%rbx)
	jmp	.L177
.L194:
	cmpq	1040(%rbx), %rcx
	ja	.L175
	movq	%rbx, %rsi
	movq	%rcx, %rdi
	movl	%r11d, 36(%rsp)
	movl	%r10d, 32(%rsp)
	movq	%rdx, 24(%rsp)
	movq	%r8, 16(%rsp)
	movq	%rcx, 8(%rsp)
	call	z900_fetch_main_absolute
	movq	8(%rsp), %rcx
	movq	(%rax), %rsi
	movq	16(%rsp), %r8
	movq	24(%rsp), %rdx
	movl	32(%rsp), %r10d
	bswap	%rsi
	testl	$1024, %esi
	movl	36(%rsp), %r11d
	jne	.L196
	testl	$2048, %esi
	jne	.L163
	movl	%r15d, %eax
	andl	$512, %eax
	testl	$512, %r8d
	jne	.L198
	jmp	.L165
.L509:
	testb	$-128, 330(%rbx)
	je	.L187
	testl	$1024, %r8d
	je	.L187
	testl	$512, %r8d
	je	.L188
	orb	$2, 994(%rbx)
.L188:
	testl	$1024, %r15d
	jne	.L516
	movq	%r8, %rax
	movq	%r14, %rdx
	andq	$-1048576, %rax
	andl	$1048575, %edx
	orq	%rdx, %rax
	movq	%rax, 944(%rbx)
	andq	$-4096, %rax
	testl	$256, %r15d
	movq	%rax, 960(%rbx)
	jne	.L483
	movq	968(%rbx), %rdx
	movq	%rdx, 2232(%rbp)
	movl	2224(%rbx), %edx
	movq	%rax, 18616(%rbp)
	movq	%r8, %rax
	shrq	$4, %rax
	andl	$1, %eax
	orq	%r13, %rdx
	movq	%rdx, 10424(%rbp)
	movb	%al, 44216(%rbx,%r12)
	movzbl	994(%rbx), %eax
	movb	$0, 46264(%rbx,%r12)
	shrb	%al
	andl	$3, %eax
	movb	%al, 45240(%rbx,%r12)
	movq	$0, 26808(%rbp)
	jmp	.L483
.L196:
	testl	$512, %r15d
	movq	%rcx, 944(%rbx)
	movw	$17, 992(%rbx)
	je	.L268
	jmp	.L484
.L516:
	movw	$0, 992(%rbx)
	movzbl	994(%rbx), %eax
	andl	$6, %eax
	cmpb	$1, %al
	sbbq	%rax, %rax
	xorl	%esi, %esi
	notq	%rax
	andl	$4, %eax
	orq	%rdx, %rax
	movq	%rax, 944(%rbx)
	jmp	.L214
.L140:
	movl	%eax, %edi
	xorl	88(%rbx), %edi
	jmp	.L141
.L515:
	cmpl	$0, 36(%rsp)
	jne	.L146
	testl	$16777216, 32(%rsp)
	je	.L146
	movzwl	32(%rsp), %esi
	movzwl	24(%rsp), %edi
	cmpw	%si, %di
	je	.L146
	movl	68(%rsp), %edx
	movl	%edi, %ecx
	andl	$2147483644, %eax
	andl	$65520, %ecx
	andl	$65520, %edx
	cmpl	%ecx, %edx
	jl	.L152
	movl	%edi, %edx
	shrw	$2, %dx
	movzwl	%dx, %edx
	addl	%edx, %eax
	andl	$2147483647, %eax
	movl	%eax, %ecx
	cmpq	1040(%rbx), %rcx
	ja	.L148
	movq	%rcx, %rsi
	andq	$-8192, %rsi
	je	.L149
	movl	88(%rbx), %edx
	cmpq	%rdx, %rsi
	je	.L149
.L150:
	movzbl	1144(%rbx), %edx
	testb	$2, %dl
	jne	.L517
.L151:
	movq	1024(%rbx), %rdx
	shrl	$11, %eax
	addq	1032(%rbx), %rax
	movzbl	(%rdx,%rcx), %edx
	movl	24(%rsp), %ecx
	orb	$4, (%rax)
	andl	$3, %ecx
	addl	%ecx, %ecx
	sall	%cl, %edx
	andb	$64, %dl
	jne	.L146
.L152:
	movw	$45, 992(%rbx)
	movl	$45, %esi
	jmp	.L154
.L146:
	testl	$33554432, 32(%rsp)
	je	.L153
	movzbl	994(%rbx), %eax
	andl	$-7, %eax
	orl	$4, %eax
	movb	%al, 994(%rbx)
.L153:
	movl	72(%rsp), %edx
	movl	$1, 976(%rbx)
	movzbl	994(%rbx), %esi
	movl	76(%rsp), %eax
	salq	$32, %rdx
	shrb	%sil
	orq	%rax, %rdx
	andb	$2, %sil
	movq	%rdx, 968(%rbx)
	je	.L261
	xorq	$3088, %rdx
	orb	$1, %dh
	movq	%rdx, 968(%rbx)
.L261:
	movq	16(%rsp), %rdi
	leal	17(%r13), %eax
	movq	%rdx, %rcx
	cltq
	addl	$16, %r13d
	andl	$288, %ecx
	movq	%rdx, 320(%rbx,%rax,8)
	setne	%cl
	movl	%r13d, 1892(%rdi)
	sete	1976(%rbx,%rax)
	movq	8(%rsp), %rax
	movb	%sil, 2009(%rbx,%rax)
	jmp	.L116
.L144:
	movw	$43, 992(%rbx)
	movl	$43, %esi
	jmp	.L154
.L517:
	andb	$4, %dl
	jne	.L151
	movq	%rcx, %rdi
	movq	1056(%rbx), %rdx
	xorl	%ecx, %ecx
	addq	1096(%rbx), %rdi
	movl	$1, %r9d
	xorl	%r8d, %r8d
	movl	$-3, %esi
	movl	%r11d, 40(%rsp)
	movl	%r10d, 36(%rsp)
	call	z900_logical_to_main_l
	movq	1056(%rbx), %rax
	movl	40(%rsp), %r11d
	movl	36(%rsp), %r10d
	movl	952(%rax), %eax
	movl	%eax, %ecx
	jmp	.L151
.L149:
	xorl	88(%rbx), %eax
	movl	%eax, %ecx
	jmp	.L150
.L148:
	movl	$5, %esi
	movq	%rbx, %rdi
	movl	%r10d, (%rsp)
	call	*2032(%rbx)
	movl	(%rsp), %r10d
	jmp	.L152
	.cfi_endproc
.LFE2152:
	.size	z900_logical_to_main_l, .-z900_logical_to_main_l
	.p2align 4,,15
	.type	z900_fetch_main_absolute, @function
z900_fetch_main_absolute:
.LFB2130:
	.cfi_startproc
	pushq	%rbx
	.cfi_def_cfa_offset 16
	.cfi_offset 3, -16
	movq	%rsi, %rbx
	movzbl	1144(%rsi), %eax
	testb	$2, %al
	jne	.L524
.L519:
	movq	%rdi, %rdx
	movq	%rdi, %rax
	shrq	$11, %rdx
	addq	1032(%rbx), %rdx
	orb	$4, (%rdx)
	addq	1024(%rbx), %rax
	popq	%rbx
	.cfi_remember_state
	.cfi_def_cfa_offset 8
	ret
.L524:
	.cfi_restore_state
	testb	$4, %al
	jne	.L519
	addq	1096(%rsi), %rdi
	movl	$1, %r9d
	xorl	%r8d, %r8d
	movq	1056(%rsi), %rdx
	movl	$4, %ecx
	movl	$-3, %esi
	call	z900_logical_to_main_l
	movq	1056(%rbx), %rax
	movq	952(%rax), %rdi
	jmp	.L519
	.cfi_endproc
.LFE2130:
	.size	z900_fetch_main_absolute, .-z900_fetch_main_absolute
	.section	.text.unlikely
	.type	z900_vfetch2_full, @function
z900_vfetch2_full:
.LFB2164:
	.cfi_startproc
	pushq	%r14
	.cfi_def_cfa_offset 16
	.cfi_offset 14, -16
	leal	5(%rsi), %eax
	pushq	%r13
	.cfi_def_cfa_offset 24
	.cfi_offset 13, -24
	cltq
	movl	%esi, %r13d
	pushq	%r12
	.cfi_def_cfa_offset 32
	.cfi_offset 12, -32
	leaq	(%rdx,%rax,4), %r14
	pushq	%rbp
	.cfi_def_cfa_offset 40
	.cfi_offset 6, -40
	movq	%rdi, %rbp
	pushq	%rbx
	.cfi_def_cfa_offset 48
	.cfi_offset 3, -48
	movq	%rdx, %rbx
	movl	1892(%r14), %eax
	testl	%eax, %eax
	je	.L526
	movl	%edi, %ecx
	incl	%eax
	shrl	$12, %ecx
	cltq
	andl	$1023, %ecx
	leaq	(%rdx,%rcx,8), %rdx
	movq	2232(%rdx), %rdi
	cmpq	%rdi, 320(%rbx,%rax,8)
	je	.L527
	movb	1976(%rbx,%rax), %al
	testb	%al, 44216(%rbx,%rcx)
	je	.L526
.L527:
	movb	97(%rbx), %al
	testb	%al, %al
	je	.L528
	cmpb	43192(%rbx,%rcx), %al
	jne	.L526
.L528:
	movl	2224(%rbx), %esi
	movq	%rbp, %rax
	andq	$-4194304, %rax
	orq	%rsi, %rax
	cmpq	10424(%rdx), %rax
	jne	.L526
	testb	$4, 46264(%rbx,%rcx)
	je	.L526
	movq	%rbp, %rax
	xorq	26808(%rdx), %rax
	jmp	.L529
.L526:
	movzbl	97(%rbx), %r8d
	movl	$1, %r9d
	movl	$4, %ecx
	movq	%rbx, %rdx
	movl	%r13d, %esi
	movq	%rbp, %rdi
	call	z900_logical_to_main_l
.L529:
	movzbl	(%rax), %r12d
	leaq	1(%rbp), %rsi
	movl	1892(%r14), %eax
	sall	$8, %r12d
	testl	%eax, %eax
	je	.L530
	movq	120(%rbx), %rcx
	incl	%ebp
	incl	%eax
	cltq
	andl	%ecx, %ebp
	shrl	$12, %ebp
	andl	$1023, %ebp
	leaq	(%rbx,%rbp,8), %rdx
	movq	2232(%rdx), %rdi
	cmpq	%rdi, 320(%rbx,%rax,8)
	je	.L531
	movb	1976(%rbx,%rax), %al
	testb	%al, 44216(%rbx,%rbp)
	je	.L530
.L531:
	movb	97(%rbx), %al
	testb	%al, %al
	je	.L532
	cmpb	43192(%rbx,%rbp), %al
	jne	.L530
.L532:
	movl	2224(%rbx), %edi
	andq	%rsi, %rcx
	movq	%rcx, %rax
	andq	$-4194304, %rax
	orq	%rdi, %rax
	cmpq	10424(%rdx), %rax
	jne	.L530
	testb	$4, 46264(%rbx,%rbp)
	je	.L530
	movq	%rcx, %rax
	xorq	26808(%rdx), %rax
	jmp	.L533
.L530:
	andq	120(%rbx), %rsi
	movl	$1, %r9d
	movl	$4, %ecx
	movzbl	97(%rbx), %r8d
	movq	%rbx, %rdx
	movq	%rsi, %rdi
	movl	%r13d, %esi
	call	z900_logical_to_main_l
.L533:
	popq	%rbx
	.cfi_def_cfa_offset 40
	movzbl	(%rax), %eax
	popq	%rbp
	.cfi_def_cfa_offset 32
	orl	%r12d, %eax
	popq	%r12
	.cfi_def_cfa_offset 24
	popq	%r13
	.cfi_def_cfa_offset 16
	popq	%r14
	.cfi_def_cfa_offset 8
	ret
	.cfi_endproc
.LFE2164:
	.size	z900_vfetch2_full, .-z900_vfetch2_full
	.type	z900_validate_operand.part.9, @function
z900_validate_operand.part.9:
.LFB3143:
	.cfi_startproc
	movslq	%edx, %rdx
	movq	%r8, %rax
	movl	$1, %r9d
	addq	%rdx, %rdi
	movq	%rax, %rdx
	andq	120(%r8), %rdi
	movzbl	97(%r8), %r8d
	jmp	z900_logical_to_main_l
	.cfi_endproc
.LFE3143:
	.size	z900_validate_operand.part.9, .-z900_validate_operand.part.9
	.type	z900_vstore2_full, @function
z900_vstore2_full:
.LFB2156:
	.cfi_startproc
	pushq	%r15
	.cfi_def_cfa_offset 16
	.cfi_offset 15, -16
	leal	5(%rdx), %eax
	pushq	%r14
	.cfi_def_cfa_offset 24
	.cfi_offset 14, -24
	cltq
	movl	%edx, %r14d
	pushq	%r13
	.cfi_def_cfa_offset 32
	.cfi_offset 13, -32
	leaq	(%rcx,%rax,4), %r10
	pushq	%r12
	.cfi_def_cfa_offset 40
	.cfi_offset 12, -40
	movl	%edi, %r12d
	pushq	%rbp
	.cfi_def_cfa_offset 48
	.cfi_offset 6, -48
	movq	%rsi, %rbp
	pushq	%rbx
	.cfi_def_cfa_offset 56
	.cfi_offset 3, -56
	movq	%rcx, %rbx
	subq	$24, %rsp
	.cfi_def_cfa_offset 80
	movl	1892(%r10), %eax
	testl	%eax, %eax
	je	.L561
	leal	1(%rax), %edx
	movl	%esi, %ecx
	shrl	$12, %ecx
	movslq	%edx, %rdx
	andl	$1023, %ecx
	leaq	(%rbx,%rcx,8), %rax
	movq	2232(%rax), %rdi
	cmpq	%rdi, 320(%rbx,%rdx,8)
	je	.L562
	movb	1976(%rbx,%rdx), %dl
	testb	%dl, 44216(%rbx,%rcx)
	je	.L561
.L562:
	movb	97(%rbx), %dl
	testb	%dl, %dl
	je	.L563
	cmpb	43192(%rbx,%rcx), %dl
	jne	.L561
.L563:
	movl	2224(%rbx), %esi
	movq	%rbp, %rdx
	andq	$-4194304, %rdx
	orq	%rsi, %rdx
	cmpq	10424(%rax), %rdx
	jne	.L561
	testb	$1, 46264(%rbx,%rcx)
	je	.L561
	movq	35000(%rax), %rdx
	movq	%rbp, %r15
	movq	%rdx, 984(%rbx)
	xorq	26808(%rax), %r15
	jmp	.L564
.L561:
	movzbl	97(%rbx), %r8d
	movl	$1, %r9d
	movl	$1, %ecx
	movq	%rbx, %rdx
	movl	%r14d, %esi
	movq	%rbp, %rdi
	movq	%r10, 8(%rsp)
	call	z900_logical_to_main_l
	movq	8(%rsp), %r10
	movq	%rax, %r15
.L564:
	movl	1892(%r10), %eax
	leaq	1(%rbp), %rsi
	movq	984(%rbx), %r13
	testl	%eax, %eax
	je	.L565
	movq	120(%rbx), %rdx
	leal	1(%rax), %ecx
	incl	%ebp
	movslq	%ecx, %rcx
	andl	%edx, %ebp
	shrl	$12, %ebp
	andl	$1023, %ebp
	leaq	(%rbx,%rbp,8), %rax
	movq	2232(%rax), %rdi
	cmpq	%rdi, 320(%rbx,%rcx,8)
	je	.L566
	movb	1976(%rbx,%rcx), %cl
	testb	%cl, 44216(%rbx,%rbp)
	je	.L565
.L566:
	movb	97(%rbx), %cl
	testb	%cl, %cl
	je	.L567
	cmpb	43192(%rbx,%rbp), %cl
	jne	.L565
.L567:
	movl	2224(%rbx), %edi
	andq	%rsi, %rdx
	movq	%rdx, %rcx
	andq	$-4194304, %rcx
	orq	%rdi, %rcx
	cmpq	10424(%rax), %rcx
	jne	.L565
	testb	$2, 46264(%rbx,%rbp)
	je	.L565
	xorq	26808(%rax), %rdx
	movq	%rdx, %rax
	jmp	.L568
.L565:
	andq	120(%rbx), %rsi
	movl	$1, %r9d
	movl	$2, %ecx
	movzbl	97(%rbx), %r8d
	movq	%rbx, %rdx
	movq	%rsi, %rdi
	movl	%r14d, %esi
	call	z900_logical_to_main_l
.L568:
	orb	$6, 0(%r13)
	movl	%r12d, %ecx
	shrw	$8, %cx
	movb	%cl, (%r15)
	movb	%r12b, (%rax)
	addq	$24, %rsp
	.cfi_def_cfa_offset 56
	popq	%rbx
	.cfi_def_cfa_offset 48
	popq	%rbp
	.cfi_def_cfa_offset 40
	popq	%r12
	.cfi_def_cfa_offset 32
	popq	%r13
	.cfi_def_cfa_offset 24
	popq	%r14
	.cfi_def_cfa_offset 16
	popq	%r15
	.cfi_def_cfa_offset 8
	ret
	.cfi_endproc
.LFE2156:
	.size	z900_vstore2_full, .-z900_vstore2_full
	.type	z900_vfetch4_full, @function
z900_vfetch4_full:
.LFB2166:
	.cfi_startproc
	pushq	%r13
	.cfi_def_cfa_offset 16
	.cfi_offset 13, -16
	leal	5(%rsi), %eax
	pushq	%r12
	.cfi_def_cfa_offset 24
	.cfi_offset 12, -24
	cltq
	movl	%esi, %r12d
	pushq	%rbp
	.cfi_def_cfa_offset 32
	.cfi_offset 6, -32
	leaq	(%rdx,%rax,4), %r13
	movq	%rdi, %rbp
	pushq	%rbx
	.cfi_def_cfa_offset 40
	.cfi_offset 3, -40
	movq	%rdx, %rbx
	subq	$24, %rsp
	.cfi_def_cfa_offset 64
	movl	1892(%r13), %eax
	testl	%eax, %eax
	je	.L595
	movl	%edi, %ecx
	incl	%eax
	shrl	$12, %ecx
	cltq
	andl	$1023, %ecx
	leaq	(%rdx,%rcx,8), %rdx
	movq	2232(%rdx), %rdi
	cmpq	%rdi, 320(%rbx,%rax,8)
	je	.L596
	movb	1976(%rbx,%rax), %al
	testb	%al, 44216(%rbx,%rcx)
	je	.L595
.L596:
	movb	97(%rbx), %al
	testb	%al, %al
	je	.L597
	cmpb	43192(%rbx,%rcx), %al
	jne	.L595
.L597:
	movl	2224(%rbx), %esi
	movq	%rbp, %rax
	andq	$-4194304, %rax
	orq	%rsi, %rax
	cmpq	10424(%rdx), %rax
	jne	.L595
	testb	$4, 46264(%rbx,%rcx)
	je	.L595
	movq	%rbp, %rax
	xorq	26808(%rdx), %rax
	jmp	.L598
.L595:
	movzbl	97(%rbx), %r8d
	movl	$1, %r9d
	movl	$4, %ecx
	movq	%rbx, %rdx
	movl	%r12d, %esi
	movq	%rbp, %rdi
	call	z900_logical_to_main_l
.L598:
	movl	(%rax), %eax
	movl	%ebp, %edx
	andl	$2047, %edx
	movl	%eax, (%rsp)
	movl	$2048, %eax
	subl	%edx, %eax
	movl	1892(%r13), %edx
	movl	%eax, %r13d
	testl	%edx, %edx
	je	.L599
	movq	120(%rbx), %rcx
	addl	%ebp, %eax
	incl	%edx
	movslq	%edx, %rdx
	andl	%ecx, %eax
	shrl	$12, %eax
	andl	$1023, %eax
	leaq	(%rbx,%rax,8), %rsi
	movq	2232(%rsi), %rdi
	cmpq	%rdi, 320(%rbx,%rdx,8)
	je	.L600
	movb	44216(%rbx,%rax), %dil
	testb	%dil, 1976(%rbx,%rdx)
	je	.L599
.L600:
	movb	97(%rbx), %dl
	testb	%dl, %dl
	je	.L601
	cmpb	43192(%rbx,%rax), %dl
	jne	.L599
.L601:
	leaq	0(%r13,%rbp), %rdx
	movl	2224(%rbx), %edi
	andq	%rcx, %rdx
	movq	%rdx, %rcx
	andq	$-4194304, %rcx
	orq	%rdi, %rcx
	cmpq	10424(%rsi), %rcx
	jne	.L599
	testb	$4, 46264(%rbx,%rax)
	je	.L599
	movq	%rdx, %rax
	xorq	26808(%rsi), %rax
	jmp	.L602
.L599:
	leaq	0(%r13,%rbp), %rdi
	movzbl	97(%rbx), %r8d
	movl	$1, %r9d
	andq	120(%rbx), %rdi
	movl	$4, %ecx
	movq	%rbx, %rdx
	movl	%r12d, %esi
	call	z900_logical_to_main_l
.L602:
	movl	(%rax), %eax
	movl	%eax, (%rsp,%r13)
	movl	(%rsp), %eax
	addq	$24, %rsp
	.cfi_def_cfa_offset 40
	popq	%rbx
	.cfi_def_cfa_offset 32
	bswap	%eax
	popq	%rbp
	.cfi_def_cfa_offset 24
	popq	%r12
	.cfi_def_cfa_offset 16
	popq	%r13
	.cfi_def_cfa_offset 8
	ret
	.cfi_endproc
.LFE2166:
	.size	z900_vfetch4_full, .-z900_vfetch4_full
	.type	z900_vstore4_full, @function
z900_vstore4_full:
.LFB2158:
	.cfi_startproc
	pushq	%r15
	.cfi_def_cfa_offset 16
	.cfi_offset 15, -16
	movl	%esi, %eax
	movl	%edi, %r11d
	pushq	%r14
	.cfi_def_cfa_offset 24
	.cfi_offset 14, -24
	andl	$2047, %eax
	movl	%edx, %r10d
	pushq	%r13
	.cfi_def_cfa_offset 32
	.cfi_offset 13, -32
	pushq	%r12
	.cfi_def_cfa_offset 40
	.cfi_offset 12, -40
	movl	$2048, %r12d
	pushq	%rbp
	.cfi_def_cfa_offset 48
	.cfi_offset 6, -48
	subl	%eax, %r12d
	movq	%rsi, %rbp
	leal	5(%rdx), %eax
	pushq	%rbx
	.cfi_def_cfa_offset 56
	.cfi_offset 3, -56
	movl	%r12d, %r13d
	cltq
	subq	$40, %rsp
	.cfi_def_cfa_offset 96
	movq	%rcx, %rbx
	leaq	(%rcx,%rax,4), %r15
	movl	1892(%r15), %eax
	testl	%eax, %eax
	je	.L629
	leal	1(%rax), %edx
	movl	%esi, %ecx
	shrl	$12, %ecx
	movslq	%edx, %rdx
	andl	$1023, %ecx
	leaq	(%rbx,%rcx,8), %rax
	movq	2232(%rax), %rdi
	cmpq	%rdi, 320(%rbx,%rdx,8)
	je	.L630
	movb	44216(%rbx,%rcx), %sil
	testb	%sil, 1976(%rbx,%rdx)
	je	.L629
.L630:
	movb	97(%rbx), %dl
	testb	%dl, %dl
	je	.L631
	cmpb	43192(%rbx,%rcx), %dl
	jne	.L629
.L631:
	movl	2224(%rbx), %esi
	movq	%rbp, %rdx
	andq	$-4194304, %rdx
	orq	%rsi, %rdx
	cmpq	10424(%rax), %rdx
	jne	.L629
	testb	$1, 46264(%rbx,%rcx)
	je	.L629
	movq	35000(%rax), %rdx
	movq	%rbp, %rdi
	movq	%rdx, 984(%rbx)
	xorq	26808(%rax), %rdi
	movq	%rdi, (%rsp)
	jmp	.L632
.L629:
	movzbl	97(%rbx), %r8d
	movl	%r10d, %esi
	movq	%r13, %r9
	movl	$1, %ecx
	movq	%rbx, %rdx
	movq	%rbp, %rdi
	movl	%r11d, 12(%rsp)
	movl	%r10d, 8(%rsp)
	call	z900_logical_to_main_l
	movl	12(%rsp), %r11d
	movl	8(%rsp), %r10d
	movq	%rax, (%rsp)
.L632:
	movl	1892(%r15), %eax
	movq	984(%rbx), %r14
	testl	%eax, %eax
	je	.L633
	movq	120(%rbx), %rdx
	leal	1(%rax), %esi
	leal	(%r12,%rbp), %eax
	movslq	%esi, %rsi
	andl	%edx, %eax
	shrl	$12, %eax
	andl	$1023, %eax
	leaq	(%rbx,%rax,8), %rcx
	movq	2232(%rcx), %rdi
	cmpq	%rdi, 320(%rbx,%rsi,8)
	je	.L634
	movb	44216(%rbx,%rax), %dil
	testb	%dil, 1976(%rbx,%rsi)
	je	.L633
.L634:
	movb	97(%rbx), %sil
	testb	%sil, %sil
	je	.L635
	cmpb	43192(%rbx,%rax), %sil
	jne	.L633
.L635:
	leaq	0(%r13,%rbp), %rdi
	movl	2224(%rbx), %esi
	andq	%rdx, %rdi
	movq	%rdi, %rdx
	andq	$-4194304, %rdx
	orq	%rsi, %rdx
	cmpq	10424(%rcx), %rdx
	jne	.L633
	testb	$2, 46264(%rbx,%rax)
	je	.L633
	movq	%rdi, %rax
	xorq	26808(%rcx), %rax
	jmp	.L636
.L633:
	leaq	0(%r13,%rbp), %rdi
	movzbl	97(%rbx), %r8d
	movl	$4, %r9d
	andq	120(%rbx), %rdi
	subl	%r12d, %r9d
	movl	$2, %ecx
	movslq	%r9d, %r9
	movq	%rbx, %rdx
	movl	%r11d, 8(%rsp)
	movl	%r10d, %esi
	call	z900_logical_to_main_l
	movl	8(%rsp), %r11d
.L636:
	orb	$6, (%r14)
	leaq	16(%rsp), %rsi
	movq	%r13, %rcx
	movq	(%rsp), %rdi
	bswap	%r11d
	movl	%r11d, 16(%rsp)
	rep movsb
	movq	%rax, %rdi
	movb	$4, %cl
	subl	%r12d, %ecx
	movslq	%ecx, %rcx
	rep movsb
	addq	$40, %rsp
	.cfi_def_cfa_offset 56
	popq	%rbx
	.cfi_def_cfa_offset 48
	popq	%rbp
	.cfi_def_cfa_offset 40
	popq	%r12
	.cfi_def_cfa_offset 32
	popq	%r13
	.cfi_def_cfa_offset 24
	popq	%r14
	.cfi_def_cfa_offset 16
	popq	%r15
	.cfi_def_cfa_offset 8
	ret
	.cfi_endproc
.LFE2158:
	.size	z900_vstore4_full, .-z900_vstore4_full
	.type	z900_vstore8_full, @function
z900_vstore8_full:
.LFB2160:
	.cfi_startproc
	pushq	%r15
	.cfi_def_cfa_offset 16
	.cfi_offset 15, -16
	movl	%esi, %eax
	movq	%rdi, %r11
	pushq	%r14
	.cfi_def_cfa_offset 24
	.cfi_offset 14, -24
	andl	$2047, %eax
	movl	%edx, %r10d
	pushq	%r13
	.cfi_def_cfa_offset 32
	.cfi_offset 13, -32
	pushq	%r12
	.cfi_def_cfa_offset 40
	.cfi_offset 12, -40
	movl	$2048, %r12d
	pushq	%rbp
	.cfi_def_cfa_offset 48
	.cfi_offset 6, -48
	subl	%eax, %r12d
	movq	%rsi, %rbp
	leal	5(%rdx), %eax
	pushq	%rbx
	.cfi_def_cfa_offset 56
	.cfi_offset 3, -56
	movl	%r12d, %r13d
	cltq
	subq	$56, %rsp
	.cfi_def_cfa_offset 112
	movq	%rcx, %rbx
	leaq	(%rcx,%rax,4), %r15
	movl	1892(%r15), %eax
	testl	%eax, %eax
	je	.L663
	leal	1(%rax), %edx
	movl	%esi, %ecx
	shrl	$12, %ecx
	movslq	%edx, %rdx
	andl	$1023, %ecx
	leaq	(%rbx,%rcx,8), %rax
	movq	2232(%rax), %rdi
	cmpq	%rdi, 320(%rbx,%rdx,8)
	je	.L664
	movb	44216(%rbx,%rcx), %sil
	testb	%sil, 1976(%rbx,%rdx)
	je	.L663
.L664:
	movb	97(%rbx), %dl
	testb	%dl, %dl
	je	.L665
	cmpb	43192(%rbx,%rcx), %dl
	jne	.L663
.L665:
	movl	2224(%rbx), %esi
	movq	%rbp, %rdx
	andq	$-4194304, %rdx
	orq	%rsi, %rdx
	cmpq	10424(%rax), %rdx
	jne	.L663
	testb	$1, 46264(%rbx,%rcx)
	je	.L663
	movq	35000(%rax), %rdx
	movq	%rbp, %rdi
	movq	%rdx, 984(%rbx)
	xorq	26808(%rax), %rdi
	movq	%rdi, 8(%rsp)
	jmp	.L666
.L663:
	movzbl	97(%rbx), %r8d
	movl	%r10d, %esi
	movq	%r13, %r9
	movl	$1, %ecx
	movq	%rbx, %rdx
	movq	%rbp, %rdi
	movq	%r11, 24(%rsp)
	movl	%r10d, 16(%rsp)
	call	z900_logical_to_main_l
	movq	24(%rsp), %r11
	movl	16(%rsp), %r10d
	movq	%rax, 8(%rsp)
.L666:
	movl	1892(%r15), %eax
	movq	984(%rbx), %r14
	testl	%eax, %eax
	je	.L667
	movq	120(%rbx), %rdx
	leal	1(%rax), %esi
	leal	(%r12,%rbp), %eax
	movslq	%esi, %rsi
	andl	%edx, %eax
	shrl	$12, %eax
	andl	$1023, %eax
	leaq	(%rbx,%rax,8), %rcx
	movq	2232(%rcx), %rdi
	cmpq	%rdi, 320(%rbx,%rsi,8)
	je	.L668
	movb	44216(%rbx,%rax), %dil
	testb	%dil, 1976(%rbx,%rsi)
	je	.L667
.L668:
	movb	97(%rbx), %sil
	testb	%sil, %sil
	je	.L669
	cmpb	43192(%rbx,%rax), %sil
	jne	.L667
.L669:
	leaq	0(%r13,%rbp), %rdi
	movl	2224(%rbx), %esi
	andq	%rdx, %rdi
	movq	%rdi, %rdx
	andq	$-4194304, %rdx
	orq	%rsi, %rdx
	cmpq	10424(%rcx), %rdx
	jne	.L667
	testb	$2, 46264(%rbx,%rax)
	je	.L667
	movq	%rdi, %rax
	xorq	26808(%rcx), %rax
	jmp	.L670
.L667:
	leaq	0(%r13,%rbp), %rdi
	movzbl	97(%rbx), %r8d
	movl	$8, %r9d
	andq	120(%rbx), %rdi
	subl	%r12d, %r9d
	movl	$2, %ecx
	movslq	%r9d, %r9
	movq	%rbx, %rdx
	movq	%r11, 16(%rsp)
	movl	%r10d, %esi
	call	z900_logical_to_main_l
	movq	16(%rsp), %r11
.L670:
	orb	$6, (%r14)
	leaq	32(%rsp), %rsi
	movq	%r13, %rcx
	movq	8(%rsp), %rdi
	bswap	%r11
	movq	%r11, 32(%rsp)
	rep movsb
	movq	%rax, %rdi
	movb	$8, %cl
	subl	%r12d, %ecx
	movslq	%ecx, %rcx
	rep movsb
	addq	$56, %rsp
	.cfi_def_cfa_offset 56
	popq	%rbx
	.cfi_def_cfa_offset 48
	popq	%rbp
	.cfi_def_cfa_offset 40
	popq	%r12
	.cfi_def_cfa_offset 32
	popq	%r13
	.cfi_def_cfa_offset 24
	popq	%r14
	.cfi_def_cfa_offset 16
	popq	%r15
	.cfi_def_cfa_offset 8
	ret
	.cfi_endproc
.LFE2160:
	.size	z900_vstore8_full, .-z900_vstore8_full
	.type	z900_instfetch.constprop.15, @function
z900_instfetch.constprop.15:
.LFB3158:
	.cfi_startproc
	pushq	%r14
	.cfi_def_cfa_offset 16
	.cfi_offset 14, -16
	pushq	%r13
	.cfi_def_cfa_offset 24
	.cfi_offset 13, -24
	pushq	%r12
	.cfi_def_cfa_offset 32
	.cfi_offset 12, -32
	pushq	%rbp
	.cfi_def_cfa_offset 40
	.cfi_offset 6, -40
	pushq	%rbx
	.cfi_def_cfa_offset 48
	.cfi_offset 3, -48
	movq	%rdi, %rbx
	movq	184(%rdi), %rax
	testq	%rax, %rax
	je	.L697
	subq	144(%rdi), %rax
	movq	$0, 184(%rdi)
	addq	168(%rdi), %rax
	andq	120(%rdi), %rax
	movq	%rax, 176(%rdi)
.L697:
	movq	800(%rbx), %rbp
	movl	%ebp, %r13d
	andl	$4095, %r13d
	testb	$1, %bpl
	je	.L698
	movl	$6, %esi
	movq	%rbx, %rdi
	call	*2032(%rbx)
.L698:
	cmpq	$2048, %rbp
	sbbl	%r12d, %r12d
	andl	$-2048, %r12d
	addl	$4096, %r12d
	testb	$4, 808(%rbx)
	je	.L701
	movb	103(%rbx), %al
	movb	99(%rbx), %cl
	movl	%eax, %edx
	shrb	%al
	andl	$1, %edx
	andl	$1, %eax
	sall	$7, %edx
	sall	$5, %eax
	orl	%edx, %eax
	movb	96(%rbx), %dl
	orl	$64, %eax
	andl	$4, %edx
	cmpb	$1, %dl
	sbbl	%edx, %edx
	notl	%edx
	andl	$16, %edx
	orl	%edx, %eax
	movl	%ecx, %edx
	andl	$64, %ecx
	shrw	$4, %dx
	andl	$8, %edx
	orl	%edx, %eax
	cmpb	$1, %cl
	movl	52(%rbx), %ecx
	sbbl	%edx, %edx
	notl	%edx
	andl	$4, %edx
	orl	%edx, %eax
	testl	$4194304, %ecx
	movw	%ax, 1146(%rbx)
	je	.L701
	movq	416(%rbx), %rax
	movq	408(%rbx), %rdx
	cmpq	%rdx, %rax
	jb	.L706
	xorl	%esi, %esi
	cmpq	%rdx, %rbp
	jb	.L709
	jmp	.L768
.L706:
	cmpq	%rdx, %rbp
	movl	$1, %esi
	jae	.L709
.L768:
	xorl	%esi, %esi
	cmpq	%rax, %rbp
	setbe	%sil
.L709:
	movb	%sil, %al
	andl	$1, %eax
	testb	%al, %al
	je	.L701
	movl	56(%rbx), %eax
	movl	%eax, %edx
	orl	$4194304, %edx
	andl	$65536, %ecx
	movl	%edx, 56(%rbx)
	je	.L701
	orb	$4, 103(%rbx)
	orl	$4259840, %eax
	movq	%rbp, 112(%rbx)
	movl	%eax, 56(%rbx)
	movl	$128, %esi
	movq	%rbx, %rdi
	call	*2032(%rbx)
.L701:
	movl	1908(%rbx), %eax
	testl	%eax, %eax
	je	.L710
	movl	%ebp, %ecx
	incl	%eax
	shrl	$12, %ecx
	cltq
	andl	$1023, %ecx
	leaq	(%rbx,%rcx,8), %rdx
	movq	2232(%rdx), %rdi
	cmpq	%rdi, 320(%rbx,%rax,8)
	je	.L711
	movb	44216(%rbx,%rcx), %sil
	testb	%sil, 1976(%rbx,%rax)
	je	.L710
.L711:
	movb	97(%rbx), %al
	testb	%al, %al
	je	.L712
	cmpb	43192(%rbx,%rcx), %al
	jne	.L710
.L712:
	movl	2224(%rbx), %eax
	movq	%rbp, %rsi
	andq	$-4194304, %rsi
	orq	%rsi, %rax
	cmpq	10424(%rdx), %rax
	jne	.L710
	testb	$4, 46264(%rbx,%rcx)
	je	.L710
	movq	%rbp, %rax
	xorq	26808(%rdx), %rax
	jmp	.L713
.L710:
	movzbl	97(%rbx), %r8d
	movl	$1, %r9d
	movl	$4, %ecx
	movq	%rbx, %rdx
	orl	$-1, %esi
	movq	%rbp, %rdi
	call	z900_logical_to_main_l
.L713:
	movb	(%rax), %cl
	movl	$2, %edx
	cmpb	$63, %cl
	jbe	.L714
	cmpb	$-64, %cl
	sbbl	%edx, %edx
	andl	$-2, %edx
	addl	$6, %edx
.L714:
	addl	%r13d, %edx
	cmpl	%edx, %r12d
	jge	.L715
	movl	1908(%rbx), %edx
	leaq	1014(%rbx), %r14
	subl	%r13d, %r12d
	movl	(%rax), %eax
	movslq	%r12d, %r12
	leaq	(%r12,%rbp), %rdi
	andq	120(%rbx), %rdi
	testl	%edx, %edx
	movl	%eax, 1014(%rbx)
	je	.L716
	movl	%edi, %ecx
	incl	%edx
	shrl	$12, %ecx
	movslq	%edx, %rdx
	andl	$1023, %ecx
	leaq	(%rbx,%rcx,8), %rax
	movq	2232(%rax), %rsi
	cmpq	%rsi, 320(%rbx,%rdx,8)
	je	.L717
	movb	44216(%rbx,%rcx), %sil
	testb	%sil, 1976(%rbx,%rdx)
	je	.L716
.L717:
	movb	97(%rbx), %dl
	testb	%dl, %dl
	je	.L718
	cmpb	43192(%rbx,%rcx), %dl
	jne	.L716
.L718:
	movl	2224(%rbx), %esi
	movq	%rdi, %rdx
	andq	$-4194304, %rdx
	orq	%rsi, %rdx
	cmpq	10424(%rax), %rdx
	jne	.L716
	testb	$4, 46264(%rbx,%rcx)
	je	.L716
	xorq	26808(%rax), %rdi
	movq	%rdi, %rax
	jmp	.L719
.L716:
	movzbl	97(%rbx), %r8d
	movl	$1, %r9d
	movl	$4, %ecx
	movq	%rbx, %rdx
	orl	$-1, %esi
	call	z900_logical_to_main_l
.L719:
	movl	(%rax), %eax
	movl	%eax, (%r14,%r12)
	movq	%r14, %rax
.L715:
	popq	%rbx
	.cfi_def_cfa_offset 40
	popq	%rbp
	.cfi_def_cfa_offset 32
	popq	%r12
	.cfi_def_cfa_offset 24
	popq	%r13
	.cfi_def_cfa_offset 16
	popq	%r14
	.cfi_def_cfa_offset 8
	ret
	.cfi_endproc
.LFE3158:
	.size	z900_instfetch.constprop.15, .-z900_instfetch.constprop.15
	.type	z900_vfetch8_full.constprop.17, @function
z900_vfetch8_full.constprop.17:
.LFB3156:
	.cfi_startproc
	pushq	%r12
	.cfi_def_cfa_offset 16
	.cfi_offset 12, -16
	pushq	%rbp
	.cfi_def_cfa_offset 24
	.cfi_offset 6, -24
	movq	%rdi, %rbp
	pushq	%rbx
	.cfi_def_cfa_offset 32
	.cfi_offset 3, -32
	movq	%rsi, %rbx
	subq	$16, %rsp
	.cfi_def_cfa_offset 48
	movl	1916(%rsi), %eax
	testl	%eax, %eax
	je	.L770
	movl	%edi, %ecx
	incl	%eax
	shrl	$12, %ecx
	cltq
	andl	$1023, %ecx
	leaq	(%rsi,%rcx,8), %rdx
	movq	2232(%rdx), %rdi
	cmpq	%rdi, 320(%rsi,%rax,8)
	je	.L771
	movb	44216(%rsi,%rcx), %sil
	testb	%sil, 1976(%rbx,%rax)
	je	.L770
.L771:
	movb	97(%rbx), %al
	testb	%al, %al
	je	.L772
	cmpb	43192(%rbx,%rcx), %al
	jne	.L770
.L772:
	movl	2224(%rbx), %esi
	movq	%rbp, %rax
	andq	$-4194304, %rax
	orq	%rsi, %rax
	cmpq	10424(%rdx), %rax
	jne	.L770
	testb	$4, 46264(%rbx,%rcx)
	je	.L770
	movq	%rbp, %rax
	xorq	26808(%rdx), %rax
	jmp	.L773
.L770:
	movzbl	97(%rbx), %r8d
	movl	$1, %r9d
	movl	$4, %ecx
	movq	%rbx, %rdx
	movl	$1, %esi
	movq	%rbp, %rdi
	call	z900_logical_to_main_l
.L773:
	movq	(%rax), %rax
	movl	%ebp, %edx
	andl	$2047, %edx
	movq	%rax, (%rsp)
	movl	$2048, %eax
	subl	%edx, %eax
	movl	1916(%rbx), %edx
	movl	%eax, %r12d
	testl	%edx, %edx
	je	.L774
	movq	120(%rbx), %rcx
	addl	%ebp, %eax
	incl	%edx
	movslq	%edx, %rdx
	andl	%ecx, %eax
	shrl	$12, %eax
	andl	$1023, %eax
	leaq	(%rbx,%rax,8), %rsi
	movq	2232(%rsi), %rdi
	cmpq	%rdi, 320(%rbx,%rdx,8)
	je	.L775
	movb	44216(%rbx,%rax), %dil
	testb	%dil, 1976(%rbx,%rdx)
	je	.L774
.L775:
	movb	97(%rbx), %dl
	testb	%dl, %dl
	je	.L776
	cmpb	43192(%rbx,%rax), %dl
	jne	.L774
.L776:
	leaq	(%r12,%rbp), %rdx
	movl	2224(%rbx), %edi
	andq	%rcx, %rdx
	movq	%rdx, %rcx
	andq	$-4194304, %rcx
	orq	%rdi, %rcx
	cmpq	10424(%rsi), %rcx
	jne	.L774
	testb	$4, 46264(%rbx,%rax)
	je	.L774
	movq	%rdx, %rax
	xorq	26808(%rsi), %rax
	jmp	.L777
.L774:
	leaq	(%r12,%rbp), %rdi
	movzbl	97(%rbx), %r8d
	movl	$1, %r9d
	andq	120(%rbx), %rdi
	movl	$4, %ecx
	movq	%rbx, %rdx
	movl	$1, %esi
	call	z900_logical_to_main_l
.L777:
	movq	(%rax), %rax
	movq	%rax, (%rsp,%r12)
	movq	(%rsp), %rax
	addq	$16, %rsp
	.cfi_def_cfa_offset 32
	popq	%rbx
	.cfi_def_cfa_offset 24
	bswap	%rax
	popq	%rbp
	.cfi_def_cfa_offset 16
	popq	%r12
	.cfi_def_cfa_offset 8
	ret
	.cfi_endproc
.LFE3156:
	.size	z900_vfetch8_full.constprop.17, .-z900_vfetch8_full.constprop.17
	.text
	.p2align 4,,15
	.type	z900_translate_addr, @function
z900_translate_addr:
.LFB2143:
	.cfi_startproc
	pushq	%r15
	.cfi_def_cfa_offset 16
	.cfi_offset 15, -16
	leal	5(%rsi), %eax
	pushq	%r14
	.cfi_def_cfa_offset 24
	.cfi_offset 14, -24
	pushq	%r13
	.cfi_def_cfa_offset 32
	.cfi_offset 13, -32
	movl	%ecx, %r13d
	pushq	%r12
	.cfi_def_cfa_offset 40
	.cfi_offset 12, -40
	movl	%esi, %r12d
	pushq	%rbp
	.cfi_def_cfa_offset 48
	.cfi_offset 6, -48
	movq	%rdi, %rbp
	pushq	%rbx
	.cfi_def_cfa_offset 56
	.cfi_offset 3, -56
	movq	%rdx, %rbx
	subq	$120, %rsp
	.cfi_def_cfa_offset 176
	andb	$-8, 994(%rdx)
	cmpl	$4, %eax
	ja	.L804
	jmp	*.L806(,%rax,8)
	.section	.rodata
	.align 8
	.align 4
.L806:
	.quad	.L1043
	.quad	.L1042
	.quad	.L853
	.quad	.L809
	.quad	.L810
	.text
	.p2align 4,,10
	.p2align 3
.L804:
	movzbl	99(%rdx), %eax
	cmpb	$64, %al
	je	.L816
	testb	$1, 1144(%rdx)
	je	.L817
	movq	1064(%rdx), %rdx
	movq	1080(%rdx), %rcx
	testb	$1, 2(%rcx)
	jne	.L1045
.L817:
	cmpl	$15, %r12d
	jg	.L816
	cmpb	$-128, %al
	je	.L1042
	cmpb	$-64, %al
	.p2align 4,,3
	je	.L1043
	.p2align 4,,10
	.p2align 3
.L853:
	movq	336(%rbx), %rsi
	movl	$0, 976(%rbx)
	testl	$288, %esi
	movq	%rsi, 968(%rbx)
	setne	%dl
.L815:
	movzbl	994(%rbx), %eax
	movl	%ebp, %r15d
	movq	%rbp, %r8
	shrl	$12, %r15d
	andq	$-4194304, %r8
	andl	$1023, %r15d
	leaq	(%rbx,%r15,8), %rcx
	andl	$-2, %eax
	orl	%edx, %eax
	movl	2224(%rbx), %edx
	movb	%al, 994(%rbx)
	orq	%r8, %rdx
	cmpq	10424(%rcx), %rdx
	je	.L1046
.L856:
	testb	$32, %sil
	je	.L859
	testl	$512, %r13d
	je	.L1047
	xorl	%edx, %edx
.L860:
	movl	$18, %r10d
	movl	$18, %esi
	movw	%r10w, 992(%rbx)
.L896:
	testl	$4096, %r13d
	movl	$5, %r14d
	je	.L1048
.L964:
	addq	$120, %rsp
	.cfi_remember_state
	.cfi_def_cfa_offset 56
	movl	%r14d, %eax
	popq	%rbx
	.cfi_def_cfa_offset 48
	popq	%rbp
	.cfi_def_cfa_offset 40
	popq	%r12
	.cfi_def_cfa_offset 32
	popq	%r13
	.cfi_def_cfa_offset 24
	popq	%r14
	.cfi_def_cfa_offset 16
	popq	%r15
	.cfi_def_cfa_offset 8
	ret
	.p2align 4,,10
	.p2align 3
.L1042:
	.cfi_restore_state
	movq	384(%rbx), %rsi
	movl	$2, 976(%rbx)
	testl	$288, %esi
	movq	%rsi, 968(%rbx)
	setne	%dl
	jmp	.L815
	.p2align 4,,10
	.p2align 3
.L859:
	movl	%esi, %eax
	movq	%rbp, %rdx
	movl	%esi, %edi
	shrq	$50, %rdx
	andl	$12, %eax
	andw	$16376, %dx
	cmpb	$11, %al
	ja	.L927
	testw	%dx, %dx
	jne	.L863
.L927:
	movq	%rbp, %r14
	shrq	$39, %r14
	andw	$16376, %r14w
	cmpb	$7, %al
	ja	.L928
	testw	%r14w, %r14w
	je	.L928
.L863:
	movl	$56, %esi
	movl	$4, %eax
	movw	%si, 992(%rbx)
.L899:
	testl	$1024, %r13d
	movl	$3, %r14d
	jne	.L964
.L914:
	movslq	976(%rbx), %rdx
	andq	$-4096, %rbp
	movq	%rbp, 792(%rbx)
	cmpl	$1, %edx
	je	.L1049
	orq	%rbp, %rdx
	movq	%rdx, 792(%rbx)
.L901:
	testb	$4, %r13b
	jne	.L1050
	andl	$3, %r13d
	je	.L905
	orb	$4, %dh
	movq	%rdx, 792(%rbx)
.L905:
	cmpb	$64, 99(%rbx)
	je	.L906
	testb	$1, 1144(%rbx)
	movl	%eax, %r14d
	je	.L964
	movq	1064(%rbx), %rdx
	movq	1080(%rdx), %rcx
	testb	$1, 2(%rcx)
	je	.L964
	testb	$64, 99(%rdx)
	je	.L964
.L906:
	xorl	%edx, %edx
	testl	%r12d, %r12d
	movl	%eax, %r14d
	cmovns	%r12d, %edx
	movb	%dl, 1012(%rbx)
	jmp	.L964
	.p2align 4,,10
	.p2align 3
.L1043:
	movq	432(%rbx), %rsi
	movl	$3, 976(%rbx)
	testl	$288, %esi
	movq	%rsi, 968(%rbx)
	setne	%dl
	jmp	.L815
	.p2align 4,,10
	.p2align 3
.L809:
	movl	$0, 976(%rdx)
	movq	$-1, %rsi
	movq	$-1, 968(%rdx)
	movl	$1, %edx
	jmp	.L815
	.p2align 4,,10
	.p2align 3
.L810:
	movl	1908(%rdx), %eax
	cmpl	$1, %eax
	je	.L812
	xorl	%edx, %edx
	cmpl	$13, %eax
	sete	%dl
	leal	(%rdx,%rdx,2), %edx
	movl	%edx, 976(%rbx)
.L814:
	addl	$1, %eax
	cltq
	movq	320(%rbx,%rax,8), %rsi
	testl	$288, %esi
	movq	%rsi, 968(%rbx)
	setne	%dl
	jmp	.L815
	.p2align 4,,10
	.p2align 3
.L1047:
	movl	%r13d, %edx
	andl	$1024, %edx
	jne	.L861
	movq	%rbp, %rsi
	xorl	%r10d, %r10d
	xorl	%r9d, %r9d
	andq	$-4096, %rsi
.L862:
	testl	$512, %esi
	je	.L894
.L893:
	orb	$2, 994(%rbx)
.L894:
	andl	$256, %r13d
	jne	.L858
	movq	968(%rbx), %rax
	shrq	$4, %r10
	andl	$1, %r10d
	movq	%rax, 2232(%rcx)
	movl	2224(%rbx), %eax
	movq	%rsi, 18616(%rcx)
	orq	%r8, %rax
	movq	%rax, 10424(%rcx)
	movb	%r10b, 44216(%rbx,%r15)
	movzbl	994(%rbx), %eax
	movb	$0, 46264(%rbx,%r15)
	shrb	%al
	andl	$3, %eax
	movb	%al, 45240(%rbx,%r15)
	movq	$0, 26808(%rcx)
.L858:
	testl	%edx, %edx
	movq	%r9, %rax
	jne	.L895
	movq	%rbp, %rax
	andq	$-4096, %rsi
	andl	$4095, %eax
	movq	%rsi, 960(%rbx)
	orq	%rsi, %rax
.L895:
	xorl	%ebp, %ebp
	movq	%rax, 944(%rbx)
	xorl	%r14d, %r14d
	movw	%bp, 992(%rbx)
	jmp	.L964
	.p2align 4,,10
	.p2align 3
.L928:
	movq	%rbp, %r9
	shrq	$28, %r9
	andw	$16376, %r9w
	cmpb	$3, %al
	ja	.L929
	testw	%r9w, %r9w
	jne	.L863
.L929:
	movq	%rbp, %r10
	andq	$-4096, %rsi
	andl	$3, %edi
	shrq	$17, %r10
	andw	$16376, %r10w
	cmpb	$8, %al
	je	.L868
	cmpb	$12, %al
	je	.L869
	cmpb	$4, %al
	je	.L1051
	movzwl	%r10w, %edx
	shrw	$12, %r10w
	addq	%rsi, %rdx
.L913:
	movzbl	%dil, %edi
	cmpw	%r10w, %di
	jb	.L881
	cmpq	%rdx, 1040(%rbx)
	jae	.L1052
.L872:
	movl	$5, %r11d
	movl	$5, %esi
	movw	%r11w, 992(%rbx)
	jmp	.L896
	.p2align 4,,10
	.p2align 3
.L1046:
	cmpb	$0, 44216(%rbx,%r15)
	je	.L1053
	testb	$1, %al
	jne	.L856
.L855:
	testl	$256, %r13d
	jne	.L856
	movzbl	45240(%rbx,%r15), %eax
	movq	18616(%rcx), %rsi
	testb	%al, %al
	je	.L1041
	andl	$3, %eax
	leal	(%rax,%rax), %edx
	movzbl	994(%rbx), %eax
	andl	$-7, %eax
	orl	%edx, %eax
	movb	%al, 994(%rbx)
.L1041:
	movl	%r13d, %edx
	xorl	%r9d, %r9d
	andl	$512, %edx
	jmp	.L858
	.p2align 4,,10
	.p2align 3
.L1045:
	testb	$64, 99(%rdx)
	je	.L817
	.p2align 4,,10
	.p2align 3
.L816:
	movl	%r12d, %r14d
	andl	$15, %r14d
	je	.L853
	movzbl	1144(%rbx), %eax
	testb	$1, %al
	je	.L820
	movq	1064(%rbx), %rdx
	movq	1080(%rdx), %rcx
	testb	$1, 2(%rcx)
	je	.L853
	testb	$64, 99(%rdx)
	je	.L853
	movslq	%r14d, %r10
	movl	584(%rdx,%r10,4), %r15d
.L821:
	testl	%r15d, %r15d
	je	.L853
	cmpl	$1, %r15d
	je	.L1042
	leal	5(%r14), %edx
	movslq	%edx, %rdx
	leaq	(%rbx,%rdx,4), %r11
	movl	1892(%r11), %edx
	cmpl	$15, %edx
	jle	.L824
	movzbl	2009(%rbx,%r10), %eax
	addl	$1, %edx
	movslq	%edx, %rdx
	movq	320(%rbx,%rdx,8), %rsi
	movl	$1, 976(%rbx)
	andl	$3, %eax
	leal	(%rax,%rax), %edx
	movzbl	994(%rbx), %eax
	movq	%rsi, 968(%rbx)
	andl	$-7, %eax
	orl	%edx, %eax
	testl	$288, %esi
	movb	%al, 994(%rbx)
	setne	%dl
	jmp	.L815
	.p2align 4,,10
	.p2align 3
.L1053:
	cmpq	%rsi, 2232(%rcx)
	jne	.L856
	jmp	.L855
	.p2align 4,,10
	.p2align 3
.L861:
	movl	$19, %r9d
	movl	$19, %esi
	xorl	%edx, %edx
	movw	%r9w, 992(%rbx)
	jmp	.L896
	.p2align 4,,10
	.p2align 3
.L812:
	movl	$0, 976(%rdx)
	jmp	.L814
	.p2align 4,,10
	.p2align 3
.L1050:
	orb	$8, %dh
	movq	%rdx, 792(%rbx)
	jmp	.L905
	.p2align 4,,10
	.p2align 3
.L820:
	movslq	%r14d, %r10
	movl	584(%rbx,%r10,4), %r15d
	jmp	.L821
	.p2align 4,,10
	.p2align 3
.L1048:
	movq	%rbx, %rdi
	movq	%rdx, (%rsp)
	call	*2032(%rbx)
	movq	(%rsp), %rdx
.L882:
	testl	$1024, %r13d
	je	.L897
.L1044:
	movq	%rdx, 944(%rbx)
	movl	$2, %r14d
	jmp	.L964
	.p2align 4,,10
	.p2align 3
.L1049:
	movq	968(%rbx), %rcx
	movq	%rbp, %rdx
	movq	%rcx, %rsi
	xorq	336(%rbx), %rsi
	testq	$-4096, %rsi
	je	.L901
	movq	%rcx, %rsi
	xorq	384(%rbx), %rsi
	testq	$-4096, %rsi
	jne	.L902
	orq	$2, %rdx
	movq	%rdx, 792(%rbx)
	jmp	.L901
.L824:
	movzwl	394(%rbx), %edi
	testl	$-33554432, %r15d
	movw	%di, (%rsp)
	je	.L1054
.L825:
	movl	$40, %r15d
	movw	%r15w, 992(%rbx)
.L851:
	movl	%r13d, %r14d
	movb	%r12b, 1012(%rbx)
	sall	$21, %r14d
	sarl	$31, %r14d
	addl	$4, %r14d
	jmp	.L964
.L897:
	movl	$16, %r8d
	movq	%rdx, 944(%rbx)
	movl	$1, %eax
	movw	%r8w, 992(%rbx)
	jmp	.L914
.L1051:
	movl	%r9d, %eax
	shrw	$12, %ax
.L912:
	movzbl	%dil, %edi
	cmpw	%ax, %di
	jb	.L878
	movzwl	%r9w, %edx
	addq	%rsi, %rdx
	cmpq	1040(%rbx), %rdx
	ja	.L872
	movq	%rdx, %rdi
	movq	%rbx, %rsi
	movq	%rcx, 24(%rsp)
	movl	%r10d, 16(%rsp)
	movq	%r8, 8(%rsp)
	movq	%rdx, (%rsp)
	call	z900_fetch_main_absolute
	movq	(%rsp), %rdx
	movq	(%rax), %rdi
	movq	8(%rsp), %r8
	movl	16(%rsp), %r10d
	movq	24(%rsp), %rcx
	bswap	%rdi
	testb	$32, %dil
	jne	.L879
	movq	%rdi, %rax
	andl	$12, %eax
	cmpq	$4, %rax
	jne	.L860
	cmpb	$0, 2049(%rbx)
	js	.L1055
.L880:
	movq	%rdi, %rdx
	movzwl	%r10w, %eax
	shrw	$12, %r10w
	andq	$-4096, %rdx
	addq	%rax, %rdx
	movq	%rdi, %rax
	andl	$192, %eax
	shrq	$6, %rax
	cmpw	%ax, %r10w
	jae	.L1056
.L881:
	movl	$16, %edi
	movq	%rdx, 944(%rbx)
	movl	$3, %eax
	movw	%di, 992(%rbx)
	jmp	.L899
.L869:
	movl	%edx, %eax
	movzbl	%dil, %edi
	shrw	$12, %ax
	cmpw	%ax, %di
	jb	.L871
	movzwl	%dx, %edx
	addq	%rsi, %rdx
	cmpq	1040(%rbx), %rdx
	ja	.L872
	movq	%rdx, %rdi
	movq	%rbx, %rsi
	movq	%rcx, 32(%rsp)
	movl	%r10d, 24(%rsp)
	movl	%r9d, 16(%rsp)
	movq	%r8, 8(%rsp)
	movq	%rdx, (%rsp)
	call	z900_fetch_main_absolute
	movq	(%rsp), %rdx
	movq	(%rax), %rdi
	movq	8(%rsp), %r8
	movl	16(%rsp), %r9d
	movl	24(%rsp), %r10d
	bswap	%rdi
	testb	$32, %dil
	movq	32(%rsp), %rcx
	jne	.L873
	movq	%rdi, %rax
	andl	$12, %eax
	cmpq	$12, %rax
	jne	.L860
	cmpb	$0, 2049(%rbx)
	js	.L1057
.L874:
	movq	%rdi, %rdx
	movl	%r14d, %eax
	andl	$192, %edx
	shrw	$12, %ax
	shrq	$6, %rdx
	cmpw	%dx, %ax
	jae	.L1058
.L875:
	movl	$58, %edx
	movl	$4, %eax
	movw	%dx, 992(%rbx)
	jmp	.L899
.L868:
	movl	%r14d, %eax
	shrw	$12, %ax
.L911:
	movzbl	%dil, %edi
	cmpw	%ax, %di
	jb	.L875
	movzwl	%r14w, %edx
	addq	%rsi, %rdx
	cmpq	1040(%rbx), %rdx
	ja	.L872
	movq	%rdx, %rdi
	movq	%rbx, %rsi
	movq	%rcx, 32(%rsp)
	movl	%r10d, 24(%rsp)
	movl	%r9d, 16(%rsp)
	movq	%r8, 8(%rsp)
	movq	%rdx, (%rsp)
	call	z900_fetch_main_absolute
	movq	(%rsp), %rdx
	movq	(%rax), %rdi
	movq	8(%rsp), %r8
	movl	16(%rsp), %r9d
	movl	24(%rsp), %r10d
	bswap	%rdi
	testb	$32, %dil
	movq	32(%rsp), %rcx
	jne	.L876
	movq	%rdi, %rax
	andl	$12, %eax
	cmpq	$8, %rax
	jne	.L860
	cmpb	$0, 2049(%rbx)
	js	.L1059
.L877:
	movq	%rdi, %rdx
	movl	%r9d, %eax
	andl	$192, %edx
	shrw	$12, %ax
	shrq	$6, %rdx
	cmpw	%dx, %ax
	jae	.L1060
.L878:
	movl	$59, %eax
	movw	%ax, 992(%rbx)
	movl	$4, %eax
	jmp	.L899
.L902:
	xorq	432(%rbx), %rcx
	testq	$-4096, %rcx
	jne	.L903
	orq	$3, %rdx
	movq	%rdx, 792(%rbx)
	jmp	.L901
.L1054:
	testl	$16777216, %r15d
	je	.L826
	movl	368(%rbx), %edx
	andl	$2147483584, %edx
.L827:
	movl	%edx, %ecx
	cmpq	1040(%rbx), %rcx
	ja	.L828
	andq	$-8192, %rcx
	je	.L829
	movl	88(%rbx), %esi
	cmpq	%rsi, %rcx
	je	.L829
.L830:
	leal	16(%rdx), %ecx
	testb	$2, %al
	jne	.L1061
.L831:
	movq	%rcx, %rax
	movzwl	%r15w, %edx
	shrq	$11, %rax
	addq	1032(%rbx), %rax
	orb	$4, (%rax)
	movq	1024(%rbx), %rax
	movl	(%rax,%rcx), %eax
	movl	%edx, %ecx
	shrl	$3, %ecx
	bswap	%eax
	movl	%eax, %esi
	andl	$127, %esi
	cmpl	%ecx, %esi
	jae	.L1062
.L832:
	movl	$41, %r14d
	movw	%r14w, 992(%rbx)
	jmp	.L851
.L871:
	movl	$57, %ecx
	movl	$4, %eax
	movw	%cx, 992(%rbx)
	jmp	.L899
.L828:
	movl	$5, %eax
	movl	$5, %esi
	movq	%rbx, %rdi
	movw	%ax, 992(%rbx)
	call	*2032(%rbx)
	jmp	.L825
.L903:
	orq	$1, %rdx
	movq	%rdx, 792(%rbx)
	jmp	.L901
.L826:
	movl	344(%rbx), %edx
	andl	$2147483584, %edx
	jmp	.L827
.L829:
	xorl	88(%rbx), %edx
	jmp	.L830
.L1062:
	andl	$2147483520, %eax
	sall	$4, %edx
	addl	%edx, %eax
	movl	%eax, %edi
	cmpq	1040(%rbx), %rdi
	ja	.L828
	movq	%rdi, %rcx
	andq	$-8192, %rcx
	je	.L833
	movl	88(%rbx), %edx
	cmpq	%rdx, %rcx
	je	.L833
.L834:
	movq	%rbx, %rsi
	movq	%r10, 32(%rsp)
	movq	%r11, 24(%rsp)
	call	z900_fetch_main_absolute
	movl	(%rax), %edx
	movl	8(%rax), %ecx
	movl	12(%rax), %eax
	bswap	%edx
	movl	%edx, %edi
	bswap	%ecx
	movl	%ecx, %ecx
	movq	%rdi, 8(%rsp)
	bswap	%eax
	salq	$32, %rax
	orq	%rax, %rcx
	testl	%edi, %edi
	js	.L832
	movl	%r13d, %eax
	movq	24(%rsp), %r11
	andl	$2048, %eax
	movq	32(%rsp), %r10
	movl	%eax, 16(%rsp)
	jne	.L835
	xorl	8(%rsp), %r15d
	andl	$16711680, %r15d
	je	.L835
.L836:
	movw	$42, 992(%rbx)
	jmp	.L851
.L873:
	testl	$1024, %r13d
	je	.L871
	orq	$3, %rdx
	jmp	.L1044
.L1052:
	movq	%rdx, %rdi
	movq	%rbx, %rsi
	movq	%rcx, 16(%rsp)
	movq	%r8, 8(%rsp)
	movq	%rdx, (%rsp)
	call	z900_fetch_main_absolute
	movq	(%rsp), %rdx
	movq	(%rax), %r10
	movq	8(%rsp), %r8
	movq	16(%rsp), %rcx
	bswap	%r10
	testb	$32, %r10b
	jne	.L882
	testb	$12, %r10b
	jne	.L860
	movzbl	994(%rbx), %esi
	testb	$1, %sil
	je	.L883
	testb	$16, %r10b
	jne	.L860
.L883:
	movzbl	2049(%rbx), %edi
	testb	%dil, %dil
	js	.L1063
.L884:
	movq	%rbp, %rax
	movq	%r10, %r9
	movl	%r13d, %r14d
	shrq	$9, %rax
	andq	$-2048, %r9
	andl	$2040, %eax
	addq	%rax, %r9
	andl	$1024, %r14d
	je	.L890
	shrq	$9, %r10
	movq	%r9, 944(%rbx)
	movw	$0, 992(%rbx)
	movl	%r10d, %r14d
	andl	$1, %r14d
	testb	%dil, %dil
	jns	.L964
	testb	$-128, 330(%rbx)
	je	.L964
	andb	$6, %sil
	movl	$1, %eax
	cmovne	%eax, %r14d
	jmp	.L964
.L879:
	testl	$1024, %r13d
	je	.L878
	orq	$1, %rdx
	movl	$2, %r14d
	movq	%rdx, 944(%rbx)
	jmp	.L964
.L876:
	testl	$1024, %r13d
	je	.L875
	orq	$2, %rdx
	movl	$2, %r14d
	movq	%rdx, 944(%rbx)
	jmp	.L964
.L833:
	movl	%eax, %edi
	xorl	88(%rbx), %edi
	jmp	.L834
.L835:
	movl	%ecx, %eax
	andl	$2147483584, %eax
	movl	%eax, %edi
	movq	%rdi, %rsi
	andq	$-8192, %rsi
	je	.L837
	movl	88(%rbx), %edx
	cmpq	%rdx, %rsi
	je	.L837
.L838:
	cmpq	1040(%rbx), %rdi
	ja	.L828
	movq	%rbx, %rsi
	movq	%r10, 40(%rsp)
	movq	%rcx, 32(%rsp)
	movq	%r11, 24(%rsp)
	call	z900_fetch_main_absolute
	movq	40(%rsp), %r10
	xorl	%edx, %edx
	movq	32(%rsp), %rcx
	movq	24(%rsp), %r11
.L840:
	movl	(%rax,%rdx), %esi
	bswap	%esi
	movl	%esi, 48(%rsp,%rdx)
	addq	$4, %rdx
	cmpq	$64, %rdx
	jne	.L840
	movl	48(%rsp), %eax
	testl	%eax, %eax
	js	.L841
	shrq	$32, %rcx
	cmpl	%ecx, 68(%rsp)
	je	.L1064
.L842:
	movw	$44, 992(%rbx)
	jmp	.L851
.L837:
	movl	%eax, %edi
	xorl	88(%rbx), %edi
	jmp	.L838
.L1056:
	andl	$3, %edi
	jmp	.L913
.L1060:
	movq	%rdi, %rsi
	andl	$3, %edi
	andq	$-4096, %rsi
	jmp	.L912
.L1059:
	testb	$-128, 330(%rbx)
	je	.L877
	testl	$512, %edi
	je	.L877
	orb	$2, 994(%rbx)
	jmp	.L877
.L1061:
	testb	$4, %al
	jne	.L831
	movq	%rcx, %rdi
	movq	1056(%rbx), %rdx
	movl	$4, %ecx
	addq	1096(%rbx), %rdi
	movl	$1, %r9d
	xorl	%r8d, %r8d
	movl	$-3, %esi
	movq	%r10, 16(%rsp)
	movq	%r11, 8(%rsp)
	call	z900_logical_to_main_l
	movq	1056(%rbx), %rax
	movq	16(%rsp), %r10
	movq	8(%rsp), %r11
	movq	952(%rax), %rcx
	jmp	.L831
.L1055:
	testb	$-128, 330(%rbx)
	je	.L880
	testl	$512, %edi
	je	.L880
	orb	$2, 994(%rbx)
	jmp	.L880
.L890:
	cmpq	1040(%rbx), %r9
	ja	.L872
	movq	%rbx, %rsi
	movq	%r9, %rdi
	movq	%rcx, 32(%rsp)
	movq	%r10, 24(%rsp)
	movq	%r8, 16(%rsp)
	movq	%rdx, 8(%rsp)
	movq	%r9, (%rsp)
	call	z900_fetch_main_absolute
	movq	(%rsp), %r9
	movq	(%rax), %rsi
	movq	8(%rsp), %rdx
	movq	16(%rsp), %r8
	movq	24(%rsp), %r10
	bswap	%rsi
	testl	$1024, %esi
	movq	32(%rsp), %rcx
	jne	.L891
	testl	$2048, %esi
	jne	.L860
	movl	%r13d, %edx
	andl	$512, %edx
	testl	$512, %r10d
	jne	.L893
	jmp	.L862
.L1063:
	testb	$-128, 330(%rbx)
	je	.L884
	testl	$1024, %r10d
	je	.L884
	testl	$512, %r10d
	je	.L885
	orb	$2, 994(%rbx)
.L885:
	movl	%r13d, %r14d
	andl	$1024, %r14d
	jne	.L1065
	movq	%r10, %rax
	andl	$1048575, %ebp
	andq	$-1048576, %rax
	orq	%rbp, %rax
	movq	%rax, 944(%rbx)
	andq	$-4096, %rax
	andl	$256, %r13d
	movq	%rax, 960(%rbx)
	jne	.L889
	movq	968(%rbx), %rdx
	movq	%rdx, 2232(%rcx)
	movl	2224(%rbx), %edx
	movq	%rax, 18616(%rcx)
	movq	%r10, %rax
	shrq	$4, %rax
	andl	$1, %eax
	orq	%r8, %rdx
	movq	%rdx, 10424(%rcx)
	movb	%al, 44216(%rbx,%r15)
	movzbl	994(%rbx), %eax
	movb	$0, 46264(%rbx,%r15)
	shrb	%al
	andl	$3, %eax
	movb	%al, 45240(%rbx,%r15)
	movq	$0, 26808(%rcx)
.L889:
	movw	$0, 992(%rbx)
	jmp	.L964
.L1065:
	movzbl	994(%rbx), %eax
	movl	$2, %r14d
	movw	$0, 992(%rbx)
	andl	$6, %eax
	cmpb	$1, %al
	sbbq	%rax, %rax
	notq	%rax
	andl	$4, %eax
	orq	%rdx, %rax
	movq	%rax, 944(%rbx)
	jmp	.L964
.L891:
	testl	$512, %r13d
	movq	%r9, 944(%rbx)
	movl	$2, %eax
	movw	$17, 992(%rbx)
	je	.L914
	jmp	.L964
.L1058:
	movq	%rdi, %rsi
	andl	$3, %edi
	andq	$-4096, %rsi
	jmp	.L911
.L1057:
	testb	$-128, 330(%rbx)
	je	.L874
	testl	$512, %edi
	je	.L874
	orb	$2, 994(%rbx)
	jmp	.L874
.L1064:
	cmpl	$0, 16(%rsp)
	jne	.L843
	testq	$16777216, 8(%rsp)
	je	.L843
	movzwl	8(%rsp), %ecx
	movzwl	(%rsp), %edi
	cmpw	%cx, %di
	je	.L843
	movl	52(%rsp), %edx
	movl	%edi, %ecx
	andl	$2147483644, %eax
	andl	$65520, %ecx
	andl	$65520, %edx
	cmpl	%ecx, %edx
	jl	.L849
	movl	%edi, %edx
	shrw	$2, %dx
	movzwl	%dx, %edx
	addl	%edx, %eax
	andl	$2147483647, %eax
	movl	%eax, %ecx
	cmpq	1040(%rbx), %rcx
	ja	.L845
	movq	%rcx, %rsi
	andq	$-8192, %rsi
	je	.L846
	movl	88(%rbx), %edx
	cmpq	%rdx, %rsi
	je	.L846
.L847:
	movzbl	1144(%rbx), %edx
	testb	$2, %dl
	jne	.L1066
.L848:
	movq	1024(%rbx), %rdx
	shrl	$11, %eax
	addq	1032(%rbx), %rax
	movzbl	(%rdx,%rcx), %edx
	movl	(%rsp), %ecx
	orb	$4, (%rax)
	andl	$3, %ecx
	addl	%ecx, %ecx
	sall	%cl, %edx
	andb	$64, %dl
	jne	.L843
.L849:
	movw	$45, 992(%rbx)
	jmp	.L851
.L843:
	testq	$33554432, 8(%rsp)
	je	.L850
	movzbl	994(%rbx), %eax
	andl	$-7, %eax
	orl	$4, %eax
	movb	%al, 994(%rbx)
.L850:
	movl	56(%rsp), %esi
	movl	$1, 976(%rbx)
	movzbl	994(%rbx), %ecx
	movl	60(%rsp), %eax
	salq	$32, %rsi
	shrb	%cl
	orq	%rax, %rsi
	andb	$2, %cl
	movq	%rsi, 968(%rbx)
	je	.L909
	xorq	$3088, %rsi
	orq	$256, %rsi
	movq	%rsi, 968(%rbx)
.L909:
	leal	17(%r14), %eax
	movq	%rsi, %rdx
	addl	$16, %r14d
	cltq
	andl	$288, %edx
	movq	%rsi, 320(%rbx,%rax,8)
	setne	%dl
	movl	%r14d, 1892(%r11)
	sete	1976(%rbx,%rax)
	movb	%cl, 2009(%rbx,%r10)
	jmp	.L815
.L841:
	movw	$43, 992(%rbx)
	jmp	.L851
.L1066:
	andb	$4, %dl
	jne	.L848
	movq	%rcx, %rdi
	movq	1056(%rbx), %rdx
	xorl	%ecx, %ecx
	addq	1096(%rbx), %rdi
	movl	$1, %r9d
	xorl	%r8d, %r8d
	movl	$-3, %esi
	movq	%r10, 24(%rsp)
	movq	%r11, 16(%rsp)
	call	z900_logical_to_main_l
	movq	1056(%rbx), %rax
	movq	24(%rsp), %r10
	movq	16(%rsp), %r11
	movl	952(%rax), %eax
	movl	%eax, %ecx
	jmp	.L848
.L846:
	xorl	88(%rbx), %eax
	movl	%eax, %ecx
	jmp	.L847
.L845:
	movl	$5, %esi
	movq	%rbx, %rdi
	call	*2032(%rbx)
	jmp	.L849
	.cfi_endproc
.LFE2143:
	.size	z900_translate_addr, .-z900_translate_addr
	.p2align 4,,15
	.type	s390_translate_addr, @function
s390_translate_addr:
.LFB1139:
	.cfi_startproc
	pushq	%r15
	.cfi_def_cfa_offset 16
	.cfi_offset 15, -16
	leal	5(%rsi), %eax
	pushq	%r14
	.cfi_def_cfa_offset 24
	.cfi_offset 14, -24
	pushq	%r13
	.cfi_def_cfa_offset 32
	.cfi_offset 13, -32
	movl	%ecx, %r13d
	pushq	%r12
	.cfi_def_cfa_offset 40
	.cfi_offset 12, -40
	movl	%edi, %r12d
	pushq	%rbp
	.cfi_def_cfa_offset 48
	.cfi_offset 6, -48
	movl	%esi, %ebp
	pushq	%rbx
	.cfi_def_cfa_offset 56
	.cfi_offset 3, -56
	movq	%rdx, %rbx
	subq	$136, %rsp
	.cfi_def_cfa_offset 192
	andb	$-8, 994(%rdx)
	cmpl	$4, %eax
	ja	.L1068
	jmp	*.L1070(,%rax,8)
	.section	.rodata
	.align 8
	.align 4
.L1070:
	.quad	.L1252
	.quad	.L1251
	.quad	.L1126
	.quad	.L1073
	.quad	.L1074
	.text
	.p2align 4,,10
	.p2align 3
.L1068:
	movzbl	99(%rdx), %eax
	cmpb	$64, %al
	je	.L1080
	testb	$1, 1144(%rdx)
	je	.L1081
	movq	1064(%rdx), %rdx
	movq	1080(%rdx), %rcx
	testb	$1, 2(%rcx)
	jne	.L1253
.L1081:
	cmpl	$15, %ebp
	jg	.L1080
	cmpb	$-128, %al
	je	.L1251
	cmpb	$-64, %al
	.p2align 4,,4
	je	.L1252
	.p2align 4,,10
	.p2align 3
.L1126:
	movl	$0, 976(%rbx)
	movl	336(%rbx), %eax
	movq	%rax, 968(%rbx)
.L1079:
	movl	328(%rbx), %eax
	xorl	%r14d, %r14d
	andl	$16252928, %eax
	cmpl	$11534336, %eax
	je	.L1254
.L1140:
	movl	$18, %esi
	movw	%si, 992(%rbx)
	movl	$18, %esi
.L1149:
	movq	%rbx, %rdi
	call	*2032(%rbx)
.L1139:
	andl	$1024, %r13d
	je	.L1150
	movq	%r14, 944(%rbx)
	movl	$2, %eax
.L1220:
	addq	$136, %rsp
	.cfi_remember_state
	.cfi_def_cfa_offset 56
	popq	%rbx
	.cfi_def_cfa_offset 48
	popq	%rbp
	.cfi_def_cfa_offset 40
	popq	%r12
	.cfi_def_cfa_offset 32
	popq	%r13
	.cfi_def_cfa_offset 24
	popq	%r14
	.cfi_def_cfa_offset 16
	popq	%r15
	.cfi_def_cfa_offset 8
	ret
	.p2align 4,,10
	.p2align 3
.L1251:
	.cfi_restore_state
	movl	$2, 976(%rbx)
	movl	384(%rbx), %eax
	movq	%rax, 968(%rbx)
	jmp	.L1079
	.p2align 4,,10
	.p2align 3
.L1252:
	movl	$3, 976(%rbx)
	movl	432(%rbx), %eax
	movq	%rax, 968(%rbx)
	jmp	.L1079
	.p2align 4,,10
	.p2align 3
.L1073:
	movl	$0, 976(%rdx)
	movl	$4294967295, %eax
	movq	%rax, 968(%rdx)
	jmp	.L1079
	.p2align 4,,10
	.p2align 3
.L1074:
	movl	1908(%rdx), %eax
	cmpl	$1, %eax
	je	.L1076
	xorl	%edx, %edx
	cmpl	$13, %eax
	sete	%dl
	leal	(%rdx,%rdx,2), %edx
	movl	%edx, 976(%rbx)
.L1078:
	addl	$1, %eax
	cltq
	movl	320(%rbx,%rax,8), %eax
	movq	%rax, 968(%rbx)
	jmp	.L1079
	.p2align 4,,10
	.p2align 3
.L1254:
	movq	968(%rbx), %rdx
	movl	%r12d, %r15d
	movl	%r12d, %r11d
	movzbl	994(%rbx), %eax
	shrl	$12, %r15d
	andl	$2143289344, %r11d
	andl	$1023, %r15d
	leaq	(%rbx,%r15,8), %r10
	movq	%rdx, %rcx
	shrq	$8, %rcx
	andl	$-2, %eax
	andl	$1, %ecx
	orl	%ecx, %eax
	movl	2224(%rbx), %ecx
	movb	%al, 994(%rbx)
	orl	%r11d, %ecx
	cmpl	10424(%r10), %ecx
	je	.L1255
.L1127:
	movq	%r12, %rax
	movq	%rdx, %r14
	andl	$127, %edx
	shrq	$18, %rax
	andl	$2147479552, %r14d
	andl	$8188, %eax
	addq	%rax, %r14
	movl	%r12d, %eax
	shrl	$24, %eax
	cmpl	%eax, %edx
	jb	.L1131
	cmpq	1040(%rbx), %r14
	ja	.L1132
	movl	%r14d, %edx
	movl	%r14d, %eax
	andl	$2147479552, %edx
	jne	.L1133
	movl	88(%rbx), %r14d
.L1134:
	xorl	%eax, %r14d
.L1135:
	movzbl	1144(%rbx), %eax
	movq	%r14, %rdx
	testb	$2, %al
	jne	.L1256
.L1136:
	movq	%rdx, %rax
	shrq	$11, %rax
	addq	1032(%rbx), %rax
	orb	$4, (%rax)
	movq	1024(%rbx), %rax
	movl	(%rax,%rdx), %edx
	bswap	%edx
	testb	$32, %dl
	jne	.L1139
	testl	%edx, %edx
	js	.L1140
	testb	$1, 994(%rbx)
	je	.L1141
	testb	$16, %dl
	jne	.L1140
.L1141:
	movl	%r12d, %eax
	movl	%edx, %esi
	andl	$1044480, %eax
	andl	$2147483584, %esi
	movl	%eax, %ecx
	shrl	$16, %eax
	shrl	$10, %ecx
	addq	%rsi, %rcx
	movl	%edx, %esi
	andl	$15, %esi
	cmpl	%eax, %esi
	jb	.L1142
	cmpq	1040(%rbx), %rcx
	ja	.L1132
	movl	%ecx, %esi
	movl	%ecx, %eax
	andl	$2147479552, %esi
	je	.L1143
	cmpl	88(%rbx), %esi
	je	.L1143
.L1144:
	movq	%rbx, %rsi
	movq	%rcx, %rdi
	movq	%r10, 32(%rsp)
	movl	%edx, 24(%rsp)
	movl	%r11d, 16(%rsp)
	movq	%rcx, 8(%rsp)
	call	s390_fetch_fullword_absolute
	movq	8(%rsp), %rcx
	testb	$4, %ah
	movl	%eax, %esi
	movl	16(%rsp), %r11d
	movl	24(%rsp), %edx
	movq	32(%rsp), %r10
	jne	.L1145
	testl	$-2147481344, %eax
	jne	.L1140
	testb	$2, %ah
	je	.L1146
	orb	$2, 994(%rbx)
.L1146:
	testl	$256, %r13d
	jne	.L1130
	movq	968(%rbx), %rdi
	movl	%edi, 2232(%r10)
	orl	2224(%rbx), %r11d
	movl	%eax, 18616(%r10)
	movl	%edx, %eax
	shrl	$4, %eax
	andl	$1, %eax
	movl	%r11d, 10424(%r10)
	movb	%al, 44216(%rbx,%r15)
	movb	$0, 46264(%rbx,%r15)
	movzbl	994(%rbx), %eax
	shrb	%al
	andl	$3, %eax
	movb	%al, 45240(%rbx,%r15)
	movq	$0, 26808(%r10)
.L1130:
	andl	$512, %r13d
	jne	.L1147
	movl	%r12d, %ecx
	andl	$2147479552, %esi
	andl	$4095, %ecx
	movq	%rsi, 960(%rbx)
	orq	%rsi, %rcx
.L1147:
	xorl	%r8d, %r8d
	movq	%rcx, 944(%rbx)
	xorl	%eax, %eax
	movw	%r8w, 992(%rbx)
	jmp	.L1220
	.p2align 4,,10
	.p2align 3
.L1150:
	movl	$16, %ecx
	movq	%r14, 944(%rbx)
	movl	$1, %edx
	movw	%cx, 992(%rbx)
.L1151:
	movl	976(%rbx), %eax
	andl	$2147479552, %r12d
	movl	%r12d, 792(%rbx)
	cmpl	$1, %eax
	je	.L1257
	cmpl	$2, %eax
	movzbl	99(%rbx), %ecx
	je	.L1258
.L1159:
	orl	%eax, %r12d
	movl	%r12d, 792(%rbx)
.L1155:
	cmpb	$64, %cl
	je	.L1160
	testb	$1, 1144(%rbx)
	movl	%edx, %eax
	je	.L1220
	movq	1064(%rbx), %rcx
	movq	1080(%rcx), %rsi
	testb	$1, 2(%rsi)
	je	.L1220
	testb	$64, 99(%rcx)
	je	.L1220
.L1160:
	xorl	%eax, %eax
	testl	%ebp, %ebp
	cmovns	%ebp, %eax
	movb	%al, 1012(%rbx)
	movl	%edx, %eax
	jmp	.L1220
	.p2align 4,,10
	.p2align 3
.L1253:
	testb	$64, 99(%rdx)
	je	.L1081
	.p2align 4,,10
	.p2align 3
.L1080:
	movl	%ebp, %r14d
	andl	$15, %r14d
	je	.L1126
	movzbl	1144(%rbx), %eax
	testb	$1, %al
	je	.L1084
	movq	1064(%rbx), %rdx
	movq	1080(%rdx), %rcx
	testb	$1, 2(%rcx)
	je	.L1126
	testb	$64, 99(%rdx)
	je	.L1126
	movslq	%r14d, %r10
	movl	584(%rdx,%r10,4), %r15d
.L1085:
	testl	%r15d, %r15d
	je	.L1126
	cmpl	$1, %r15d
	je	.L1251
	leal	5(%r14), %edx
	movslq	%edx, %rdx
	leaq	(%rbx,%rdx,4), %r11
	movl	1892(%r11), %edx
	cmpl	$15, %edx
	jle	.L1088
	addl	$1, %edx
	movslq	%edx, %rdx
	movl	320(%rbx,%rdx,8), %eax
	movq	%rax, 968(%rbx)
	movzbl	2009(%rbx,%r10), %eax
	movl	$1, 976(%rbx)
	andl	$3, %eax
	leal	(%rax,%rax), %edx
	movzbl	994(%rbx), %eax
	andl	$-7, %eax
	orl	%edx, %eax
	movb	%al, 994(%rbx)
	jmp	.L1079
	.p2align 4,,10
	.p2align 3
.L1131:
	movl	$16, %eax
	movq	%r14, 944(%rbx)
	movl	$3, %edx
	movw	%ax, 992(%rbx)
.L1152:
	andl	$1024, %r13d
	je	.L1151
	movl	$3, %eax
	jmp	.L1220
	.p2align 4,,10
	.p2align 3
.L1076:
	movl	$0, 976(%rdx)
	jmp	.L1078
	.p2align 4,,10
	.p2align 3
.L1132:
	movl	$5, %edi
	movl	$5, %esi
	movw	%di, 992(%rbx)
	jmp	.L1149
	.p2align 4,,10
	.p2align 3
.L1084:
	movslq	%r14d, %r10
	movl	584(%rbx,%r10,4), %r15d
	jmp	.L1085
.L1257:
	movq	968(%rbx), %rcx
	movl	336(%rbx), %eax
	xorq	%rcx, %rax
	testl	$2147479552, %eax
	je	.L1250
	movl	384(%rbx), %eax
	xorq	%rcx, %rax
	testl	$2147479552, %eax
	jne	.L1156
	orl	$2, %r12d
	movzbl	99(%rbx), %ecx
	movl	%r12d, 792(%rbx)
	jmp	.L1155
	.p2align 4,,10
	.p2align 3
.L1255:
	cmpb	$0, 44216(%rbx,%r15)
	je	.L1259
	testb	$1, %al
	jne	.L1127
.L1129:
	testl	$256, %r13d
	jne	.L1127
	movzbl	45240(%rbx,%r15), %eax
	xorl	%ecx, %ecx
	movl	18616(%r10), %esi
	testb	%al, %al
	je	.L1130
	andl	$3, %eax
	leal	(%rax,%rax), %edx
	movzbl	994(%rbx), %eax
	andl	$-7, %eax
	orl	%edx, %eax
	movb	%al, 994(%rbx)
	jmp	.L1130
.L1259:
	movl	2232(%r10), %eax
	cmpq	%rax, %rdx
	jne	.L1127
	jmp	.L1129
.L1133:
	cmpl	88(%rbx), %edx
	jne	.L1135
	movl	%edx, %r14d
	.p2align 4,,5
	jmp	.L1134
.L1088:
	movzwl	394(%rbx), %edi
	testl	$-33554432, %r15d
	movw	%di, 8(%rsp)
	je	.L1260
.L1089:
	movl	$40, %r10d
	movw	%r10w, 992(%rbx)
.L1124:
	movl	%r13d, %eax
	movb	%bpl, 1012(%rbx)
	sall	$21, %eax
	sarl	$31, %eax
	addl	$4, %eax
	jmp	.L1220
.L1258:
	testb	$127, %cl
	jne	.L1159
	orl	$-2147483646, %r12d
	movl	%r12d, 792(%rbx)
	jmp	.L1155
.L1157:
	orl	$1, %r12d
	movl	%r12d, 792(%rbx)
.L1250:
	movzbl	99(%rbx), %ecx
	jmp	.L1155
.L1260:
	testl	$16777216, %r15d
	je	.L1090
	movl	368(%rbx), %edx
	andl	$2147483584, %edx
.L1091:
	movl	%edx, %ecx
	cmpq	1040(%rbx), %rcx
	jbe	.L1261
.L1092:
	movl	$5, %r11d
	movl	$5, %esi
	movw	%r11w, 992(%rbx)
.L1123:
	movq	%rbx, %rdi
	call	*2032(%rbx)
	jmp	.L1089
.L1156:
	movl	432(%rbx), %eax
	xorq	%rcx, %rax
	testl	$2147479552, %eax
	jne	.L1157
	orl	$3, %r12d
	movzbl	99(%rbx), %ecx
	movl	%r12d, 792(%rbx)
	jmp	.L1155
.L1142:
	movl	$17, %edx
	movq	%rcx, 944(%rbx)
	movw	%dx, 992(%rbx)
	movl	$3, %edx
	jmp	.L1152
.L1090:
	movl	344(%rbx), %edx
	andl	$2147483584, %edx
	jmp	.L1091
.L1261:
	movl	%edx, %ecx
	andl	$2147479552, %ecx
	je	.L1093
	cmpl	88(%rbx), %ecx
	je	.L1093
.L1094:
	leal	16(%rdx), %esi
	testb	$2, %al
	movl	%esi, %ecx
	jne	.L1262
.L1095:
	movq	%rcx, %rax
	movzwl	%r15w, %edx
	shrq	$11, %rax
	addq	1032(%rbx), %rax
	orb	$4, (%rax)
	movq	1024(%rbx), %rax
	movl	(%rax,%rcx), %eax
	movl	%edx, %ecx
	shrl	$3, %ecx
	bswap	%eax
	movl	%eax, %esi
	andl	$127, %esi
	cmpl	%ecx, %esi
	jae	.L1263
.L1098:
	movl	$41, %r9d
	movw	%r9w, 992(%rbx)
	jmp	.L1124
.L1143:
	movl	%eax, %ecx
	xorl	88(%rbx), %ecx
	jmp	.L1144
.L1093:
	xorl	88(%rbx), %edx
	jmp	.L1094
.L1145:
	xorl	%eax, %eax
	testl	$512, %r13d
	movq	%rcx, 944(%rbx)
	movw	$17, 992(%rbx)
	movl	$2, %edx
	je	.L1152
	jmp	.L1220
.L1263:
	andl	$2147483520, %eax
	sall	$4, %edx
	addl	%edx, %eax
	movl	%eax, %edi
	cmpq	1040(%rbx), %rdi
	ja	.L1092
	movl	%eax, %edx
	andl	$2147479552, %edx
	je	.L1099
	cmpl	88(%rbx), %edx
	je	.L1099
.L1100:
	movq	%rbx, %rsi
	movq	%r10, 24(%rsp)
	movq	%r11, 16(%rsp)
	call	s390_fetch_main_absolute
	movq	24(%rsp), %r10
	xorl	%edx, %edx
	movq	16(%rsp), %r11
.L1102:
	movl	(%rax,%rdx), %ecx
	bswap	%ecx
	movl	%ecx, 48(%rsp,%rdx)
	addq	$4, %rdx
	cmpq	$16, %rdx
	jne	.L1102
	movl	48(%rsp), %eax
	testl	%eax, %eax
	movl	%eax, 16(%rsp)
	js	.L1098
	movl	%r13d, %eax
	andl	$2048, %eax
	movl	%eax, 24(%rsp)
	jne	.L1103
	xorl	16(%rsp), %r15d
	andl	$16711680, %r15d
	je	.L1103
.L1104:
	movw	$42, 992(%rbx)
	jmp	.L1124
.L1099:
	movl	%eax, %edi
	xorl	88(%rbx), %edi
	jmp	.L1100
.L1103:
	movl	56(%rsp), %edx
	movl	%edx, %eax
	andl	$2147483584, %eax
	andl	$2147479552, %edx
	je	.L1105
	cmpl	88(%rbx), %edx
	je	.L1105
.L1106:
	movl	%eax, %edi
	cmpq	1040(%rbx), %rdi
	ja	.L1092
	movq	%rbx, %rsi
	movq	%r10, 40(%rsp)
	movq	%r11, 32(%rsp)
	call	s390_fetch_main_absolute
	movq	40(%rsp), %r10
	xorl	%edx, %edx
	movq	32(%rsp), %r11
.L1108:
	movl	(%rax,%rdx), %ecx
	bswap	%ecx
	movl	%ecx, 64(%rsp,%rdx)
	addq	$4, %rdx
	cmpq	$64, %rdx
	jne	.L1108
	movl	64(%rsp), %eax
	testl	%eax, %eax
	js	.L1109
	movl	60(%rsp), %edi
	cmpl	%edi, 84(%rsp)
	je	.L1264
.L1110:
	movw	$44, 992(%rbx)
	jmp	.L1124
.L1256:
	testb	$4, %al
	jne	.L1136
	movq	1056(%rbx), %rdx
	movq	%r10, 16(%rsp)
	movl	%r11d, 8(%rsp)
	cmpl	$1, 80(%rdx)
	je	.L1265
	movq	%r14, %rdi
	movl	$1, %r9d
	xorl	%r8d, %r8d
	addq	1096(%rbx), %rdi
	movl	$4, %ecx
	movl	$-3, %esi
	call	z900_logical_to_main_l
	movq	16(%rsp), %r10
	movl	8(%rsp), %r11d
.L1138:
	movq	1056(%rbx), %rax
	movq	952(%rax), %rdx
	jmp	.L1136
.L1262:
	testb	$4, %al
	jne	.L1095
	movq	1056(%rbx), %rdx
	movq	%r10, 24(%rsp)
	movq	%r11, 16(%rsp)
	cmpl	$1, 80(%rdx)
	je	.L1266
	movq	%rcx, %rdi
	movl	$1, %r9d
	xorl	%r8d, %r8d
	addq	1096(%rbx), %rdi
	movl	$4, %ecx
	movl	$-3, %esi
	call	z900_logical_to_main_l
	movq	24(%rsp), %r10
	movq	16(%rsp), %r11
.L1097:
	movq	1056(%rbx), %rax
	movq	952(%rax), %rcx
	jmp	.L1095
.L1265:
	movl	1096(%rbx), %edi
	movl	$1, %r9d
	xorl	%r8d, %r8d
	movl	$4, %ecx
	movl	$-3, %esi
	addl	%r14d, %edi
	call	s390_logical_to_main_l
	movl	8(%rsp), %r11d
	movq	16(%rsp), %r10
	jmp	.L1138
.L1266:
	movl	1096(%rbx), %edi
	movl	$1, %r9d
	xorl	%r8d, %r8d
	movl	$4, %ecx
	addl	%esi, %edi
	movl	$-3, %esi
	call	s390_logical_to_main_l
	movq	16(%rsp), %r11
	movq	24(%rsp), %r10
	jmp	.L1097
.L1105:
	xorl	88(%rbx), %eax
	jmp	.L1106
.L1264:
	cmpl	$0, 24(%rsp)
	jne	.L1111
	testl	$16777216, 16(%rsp)
	je	.L1111
	movzwl	16(%rsp), %edi
	cmpw	%di, 8(%rsp)
	je	.L1111
	testb	$2, %al
	je	.L1267
.L1112:
	movw	$23, 992(%rbx)
	movl	$23, %esi
	jmp	.L1123
.L1109:
	movw	$43, 992(%rbx)
	jmp	.L1124
.L1267:
	movl	68(%rsp), %ecx
	testb	$15, %cl
	jne	.L1112
	testb	$1, %al
	je	.L1113
	testb	$1, 330(%rbx)
	je	.L1112
.L1113:
	movzwl	8(%rsp), %edi
	andl	$65520, %ecx
	andl	$2147483644, %eax
	movl	%edi, %edx
	andl	$65520, %edx
	cmpl	%edx, %ecx
	jl	.L1121
	movl	%edi, %edx
	shrw	$2, %dx
	movzwl	%dx, %edx
	addl	%eax, %edx
	movl	%edx, %eax
	andl	$2147483647, %eax
	movl	%eax, %ecx
	cmpq	1040(%rbx), %rcx
	ja	.L1115
	andl	$2147479552, %edx
	je	.L1116
	cmpl	88(%rbx), %edx
	je	.L1116
.L1117:
	movzbl	1144(%rbx), %edx
	testb	$2, %dl
	jne	.L1268
.L1118:
	movq	1024(%rbx), %rcx
	movl	%eax, %edx
	shrl	$11, %eax
	addq	1032(%rbx), %rax
	movzbl	(%rcx,%rdx), %edx
	movl	8(%rsp), %ecx
	orb	$4, (%rax)
	andl	$3, %ecx
	addl	%ecx, %ecx
	sall	%cl, %edx
	andb	$64, %dl
	jne	.L1111
.L1121:
	movw	$45, 992(%rbx)
	jmp	.L1124
.L1111:
	testl	$33554432, 16(%rsp)
	je	.L1122
	movzbl	994(%rbx), %eax
	andl	$-7, %eax
	orl	$4, %eax
	movb	%al, 994(%rbx)
.L1122:
	movl	$1, 976(%rbx)
	movl	72(%rsp), %eax
	movzbl	994(%rbx), %ecx
	movl	%eax, %edx
	shrb	%cl
	movq	%rdx, 968(%rbx)
	andb	$2, %cl
	je	.L1269
	xorb	$12, %ah
	orl	$256, %eax
	movq	%rax, 968(%rbx)
.L1163:
	leal	17(%r14), %edx
	addl	$16, %r14d
	movslq	%edx, %rdx
	movl	%eax, 320(%rbx,%rdx,8)
	shrq	$8, %rax
	xorq	$1, %rax
	movl	%r14d, 1892(%r11)
	andl	$1, %eax
	movb	%al, 1976(%rbx,%rdx)
	movb	%cl, 2009(%rbx,%r10)
	jmp	.L1079
.L1268:
	andb	$4, %dl
	jne	.L1118
	movq	1056(%rbx), %rdx
	movq	%r10, 32(%rsp)
	movq	%r11, 24(%rsp)
	cmpl	$1, 80(%rdx)
	je	.L1270
	movl	%eax, %edi
	movl	$1, %r9d
	xorl	%r8d, %r8d
	addq	1096(%rbx), %rdi
	xorl	%ecx, %ecx
	movl	$-3, %esi
	call	z900_logical_to_main_l
	movq	32(%rsp), %r10
	movq	24(%rsp), %r11
.L1120:
	movq	1056(%rbx), %rax
	movl	952(%rax), %eax
	jmp	.L1118
.L1269:
	movq	%rdx, %rax
	jmp	.L1163
.L1270:
	addl	1096(%rbx), %eax
	movl	$1, %r9d
	xorl	%r8d, %r8d
	xorl	%ecx, %ecx
	movl	$-3, %esi
	movl	%eax, %edi
	call	s390_logical_to_main_l
	movq	24(%rsp), %r11
	movq	32(%rsp), %r10
	jmp	.L1120
.L1116:
	xorl	88(%rbx), %eax
	jmp	.L1117
.L1115:
	movl	$5, %esi
	movq	%rbx, %rdi
	call	*2032(%rbx)
	jmp	.L1121
	.cfi_endproc
.LFE1139:
	.size	s390_translate_addr, .-s390_translate_addr
	.p2align 4,,15
	.type	s390_logical_to_main_l, @function
s390_logical_to_main_l:
.LFB1148:
	.cfi_startproc
	pushq	%r15
	.cfi_def_cfa_offset 16
	.cfi_offset 15, -16
	movq	%r9, %r10
	movl	%r8d, %r15d
	pushq	%r14
	.cfi_def_cfa_offset 24
	.cfi_offset 14, -24
	movl	%esi, %r14d
	pushq	%r13
	.cfi_def_cfa_offset 32
	.cfi_offset 13, -32
	movl	%ecx, %r13d
	pushq	%r12
	.cfi_def_cfa_offset 40
	.cfi_offset 12, -40
	movl	%edi, %r12d
	pushq	%rbp
	.cfi_def_cfa_offset 48
	.cfi_offset 6, -48
	shrl	$12, %r12d
	movl	%edi, %ebp
	pushq	%rbx
	.cfi_def_cfa_offset 56
	.cfi_offset 3, -56
	andl	$1023, %r12d
	movq	%rdx, %rbx
	subq	$152, %rsp
	.cfi_def_cfa_offset 208
	testb	$4, 96(%rdx)
	je	.L1272
	cmpl	$-2, %esi
	je	.L1272
.L1273:
	andb	$-8, 994(%rbx)
	leal	5(%r14), %eax
	cmpl	$4, %eax
	ja	.L1275
	jmp	*.L1277(,%rax,8)
	.section	.rodata
	.align 8
	.align 4
.L1277:
	.quad	.L1607
	.quad	.L1606
	.quad	.L1333
	.quad	.L1280
	.quad	.L1281
	.text
	.p2align 4,,10
	.p2align 3
.L1272:
	testb	$1, 1144(%rbx)
	jne	.L1273
	movl	%ebp, %eax
	movslq	%r12d, %r12
	movl	%ebp, %r8d
	movq	%rax, 944(%rbx)
	movl	%ebp, %eax
	andl	$2143289344, %r8d
	andb	$-8, 994(%rbx)
	andl	$2147479552, %eax
	movq	%rax, 960(%rbx)
	leaq	(%rbx,%r12,8), %rax
	movl	$-1, 2232(%rax)
	movl	2224(%rbx), %edx
	movl	%r8d, 18616(%rax)
	orl	%r8d, %edx
	movl	%edx, 10424(%rax)
	movb	$0, 45240(%rbx,%r12)
	movb	$0, 44216(%rbx,%r12)
	movb	$0, 46264(%rbx,%r12)
.L1274:
	testb	$6, 994(%rbx)
	je	.L1366
	testb	$3, %r13b
	jne	.L1367
.L1366:
	movq	944(%rbx), %rax
	movl	88(%rbx), %edx
	movl	%eax, %esi
	movl	%eax, %ecx
	andl	$2147479552, %esi
	je	.L1369
	cmpl	%edx, %esi
	je	.L1369
.L1370:
	movq	960(%rbx), %rsi
	movq	%rax, 952(%rbx)
	movl	%esi, %edi
	movl	%esi, %ecx
	andl	$2147479552, %edi
	je	.L1371
	cmpl	%edx, %edi
	je	.L1371
.L1372:
	cmpq	1040(%rbx), %rax
	ja	.L1373
	movzbl	1144(%rbx), %edi
	testb	$2, %dil
	jne	.L1608
.L1374:
	movq	%rax, %rcx
	shrq	$11, %rcx
	addq	1032(%rbx), %rcx
	testb	$1, %dil
	movq	%rcx, 984(%rbx)
	jne	.L1609
	testb	$4, %r13b
	je	.L1389
	testb	%r15b, %r15b
	movzbl	(%rcx), %edx
	jne	.L1610
.L1390:
	orl	$4, %edx
	andl	$2147479552, %ebp
	movb	%dl, (%rcx)
	leaq	(%rbx,%r12,8), %rcx
	movq	984(%rbx), %rdx
	movq	%rdx, 35000(%rcx)
	movzbl	(%rdx), %edx
	movb	$4, 46264(%rbx,%r12)
	andl	$-16, %edx
	movb	%dl, 43192(%rbx,%r12)
	movq	1024(%rbx), %rdx
	addq	%rdx, %rsi
	xorq	%rbp, %rsi
	movq	%rsi, 26808(%rcx)
.L1405:
	addq	%rdx, %rax
.L1596:
	addq	$152, %rsp
	.cfi_remember_state
	.cfi_def_cfa_offset 56
	popq	%rbx
	.cfi_def_cfa_offset 48
	popq	%rbp
	.cfi_def_cfa_offset 40
	popq	%r12
	.cfi_def_cfa_offset 32
	popq	%r13
	.cfi_def_cfa_offset 24
	popq	%r14
	.cfi_def_cfa_offset 16
	popq	%r15
	.cfi_def_cfa_offset 8
	ret
	.p2align 4,,10
	.p2align 3
.L1371:
	.cfi_restore_state
	movl	%edx, %esi
	xorl	%ecx, %esi
	jmp	.L1372
	.p2align 4,,10
	.p2align 3
.L1369:
	movl	%ecx, %eax
	xorl	%edx, %eax
	jmp	.L1370
	.p2align 4,,10
	.p2align 3
.L1275:
	movzbl	99(%rbx), %eax
	cmpb	$64, %al
	je	.L1287
	testb	$1, 1144(%rbx)
	jne	.L1611
.L1288:
	cmpl	$15, %r14d
	jg	.L1287
	cmpb	$-128, %al
	je	.L1606
	cmpb	$-64, %al
	.p2align 4,,3
	je	.L1607
	.p2align 4,,10
	.p2align 3
.L1333:
	movl	$0, 976(%rbx)
	movl	336(%rbx), %eax
	movq	%rax, 968(%rbx)
.L1286:
	movl	328(%rbx), %eax
	xorl	%edx, %edx
	andl	$16252928, %eax
	cmpl	$11534336, %eax
	je	.L1612
.L1344:
	movl	$18, %esi
	movw	%si, 992(%rbx)
	movl	$18, %esi
.L1353:
	movq	%rbx, %rdi
	movq	%rdx, 8(%rsp)
	call	*2032(%rbx)
	movq	8(%rsp), %rdx
.L1343:
	andl	$1024, %r13d
	je	.L1354
	movzwl	992(%rbx), %esi
	movq	%rdx, 944(%rbx)
.L1416:
	movq	%rbx, %rdi
	call	*2032(%rbx)
	xorl	%eax, %eax
	jmp	.L1596
	.p2align 4,,10
	.p2align 3
.L1606:
	movl	$2, 976(%rbx)
	movl	384(%rbx), %eax
	movq	%rax, 968(%rbx)
	jmp	.L1286
	.p2align 4,,10
	.p2align 3
.L1607:
	movl	$3, 976(%rbx)
	movl	432(%rbx), %eax
	movq	%rax, 968(%rbx)
	jmp	.L1286
	.p2align 4,,10
	.p2align 3
.L1281:
	movl	1908(%rbx), %eax
	cmpl	$1, %eax
	je	.L1283
	xorl	%edx, %edx
	cmpl	$13, %eax
	sete	%dl
	leal	(%rdx,%rdx,2), %edx
	movl	%edx, 976(%rbx)
.L1285:
	addl	$1, %eax
	cltq
	movl	320(%rbx,%rax,8), %eax
	movq	%rax, 968(%rbx)
	jmp	.L1286
	.p2align 4,,10
	.p2align 3
.L1280:
	movl	$0, 976(%rbx)
	movl	$4294967295, %eax
	movq	%rax, 968(%rbx)
	jmp	.L1286
	.p2align 4,,10
	.p2align 3
.L1611:
	movq	1064(%rbx), %rdx
	movq	1080(%rdx), %rcx
	testb	$1, 2(%rcx)
	je	.L1288
	testb	$64, 99(%rdx)
	je	.L1288
	.p2align 4,,10
	.p2align 3
.L1287:
	movl	%r14d, %r11d
	andl	$15, %r11d
	je	.L1333
	movzbl	1144(%rbx), %edi
	testb	$1, %dil
	jne	.L1613
	movslq	%r11d, %rax
	movq	%rax, 16(%rsp)
	movl	584(%rbx,%rax,4), %eax
	movl	%eax, 8(%rsp)
.L1292:
	testl	%eax, %eax
	je	.L1333
	cmpl	$1, %eax
	je	.L1606
	leal	5(%r11), %eax
	cltq
	leaq	(%rbx,%rax,4), %rax
	movq	%rax, 24(%rsp)
	movl	1892(%rax), %eax
	cmpl	$15, %eax
	jle	.L1295
	addl	$1, %eax
	cltq
	movl	320(%rbx,%rax,8), %eax
	movq	%rax, 968(%rbx)
	movq	16(%rsp), %rax
	movzbl	2009(%rbx,%rax), %eax
	movl	$1, 976(%rbx)
	andl	$3, %eax
	leal	(%rax,%rax), %edx
	movzbl	994(%rbx), %eax
	andl	$-7, %eax
	orl	%edx, %eax
	movb	%al, 994(%rbx)
	jmp	.L1286
	.p2align 4,,10
	.p2align 3
.L1612:
	movq	968(%rbx), %rcx
	movl	%ebp, %r8d
	movslq	%r12d, %r12
	movzbl	994(%rbx), %eax
	leaq	(%rbx,%r12,8), %r9
	andl	$2143289344, %r8d
	movq	%rcx, %rdx
	shrq	$8, %rdx
	andl	$-2, %eax
	andl	$1, %edx
	orl	%edx, %eax
	movl	2224(%rbx), %edx
	movb	%al, 994(%rbx)
	orl	%r8d, %edx
	cmpl	10424(%r9), %edx
	je	.L1614
.L1334:
	movq	%rbp, %rax
	movq	%rcx, %rdx
	andl	$127, %ecx
	shrq	$18, %rax
	andl	$2147479552, %edx
	andl	$8188, %eax
	addq	%rax, %rdx
	movl	%ebp, %eax
	shrl	$24, %eax
	cmpl	%eax, %ecx
	jb	.L1338
	cmpq	1040(%rbx), %rdx
	ja	.L1339
	movl	%edx, %ecx
	movl	%edx, %eax
	andl	$2147479552, %ecx
	jne	.L1340
	movl	88(%rbx), %edx
.L1341:
	xorl	%eax, %edx
.L1342:
	movq	%rdx, %rdi
	movq	%rbx, %rsi
	movq	%r10, 32(%rsp)
	movq	%r9, 24(%rsp)
	movl	%r8d, 16(%rsp)
	movq	%rdx, 8(%rsp)
	call	s390_fetch_main_absolute
	movq	8(%rsp), %rdx
	movl	(%rax), %ecx
	movl	16(%rsp), %r8d
	movq	24(%rsp), %r9
	movq	32(%rsp), %r10
	bswap	%ecx
	testb	$32, %cl
	jne	.L1343
	testl	%ecx, %ecx
	js	.L1344
	testb	$1, 994(%rbx)
	je	.L1345
	testb	$16, %cl
	jne	.L1344
.L1345:
	movl	%ebp, %eax
	movl	%ecx, %r11d
	andl	$1044480, %eax
	andl	$2147483584, %r11d
	movl	%eax, %esi
	shrl	$16, %eax
	shrl	$10, %esi
	addq	%rsi, %r11
	movl	%ecx, %esi
	andl	$15, %esi
	cmpl	%eax, %esi
	jb	.L1346
	cmpq	1040(%rbx), %r11
	ja	.L1339
	movl	%r11d, %esi
	movl	%r11d, %eax
	andl	$2147479552, %esi
	je	.L1347
	cmpl	88(%rbx), %esi
	je	.L1347
.L1348:
	movq	%rbx, %rsi
	movq	%r11, %rdi
	movq	%r10, 48(%rsp)
	movl	%ecx, 44(%rsp)
	movq	%r9, 32(%rsp)
	movq	%rdx, 24(%rsp)
	movl	%r8d, 16(%rsp)
	movq	%r11, 8(%rsp)
	call	s390_fetch_fullword_absolute
	movq	8(%rsp), %r11
	testb	$4, %ah
	movl	%eax, %esi
	movl	16(%rsp), %r8d
	movq	24(%rsp), %rdx
	movq	32(%rsp), %r9
	movl	44(%rsp), %ecx
	movq	48(%rsp), %r10
	jne	.L1349
	testl	$-2147481344, %eax
	jne	.L1344
	testb	$2, %ah
	je	.L1350
	orb	$2, 994(%rbx)
.L1350:
	testl	$256, %r13d
	jne	.L1337
	movq	968(%rbx), %rdx
	movl	%edx, 2232(%r9)
	movl	2224(%rbx), %edx
	movl	%eax, 18616(%r9)
	movl	%ecx, %eax
	shrl	$4, %eax
	andl	$1, %eax
	orl	%r8d, %edx
	movl	%edx, 10424(%r9)
	movb	%al, 44216(%rbx,%r12)
	movb	$0, 46264(%rbx,%r12)
	movzbl	994(%rbx), %eax
	shrb	%al
	andl	$3, %eax
	movb	%al, 45240(%rbx,%r12)
	movq	$0, 26808(%r9)
.L1337:
	testl	$512, %r13d
	jne	.L1351
	movl	%ebp, %r11d
	andl	$2147479552, %esi
	andl	$4095, %r11d
	movq	%rsi, 960(%rbx)
	orq	%rsi, %r11
.L1351:
	xorl	%r9d, %r9d
	movq	%r11, 944(%rbx)
	movw	%r9w, 992(%rbx)
	jmp	.L1274
	.p2align 4,,10
	.p2align 3
.L1354:
	movl	$16, %ecx
	movq	%rdx, 944(%rbx)
	movl	$16, %esi
	movw	%cx, 992(%rbx)
.L1356:
	movl	976(%rbx), %eax
	andl	$2147479552, %ebp
	movl	%ebp, 792(%rbx)
	cmpl	$1, %eax
	je	.L1615
	cmpl	$2, %eax
	movzbl	99(%rbx), %edx
	je	.L1616
.L1364:
	orl	%eax, %ebp
	movl	%ebp, 792(%rbx)
.L1360:
	cmpb	$64, %dl
	je	.L1365
	testb	$1, 1144(%rbx)
	je	.L1416
	movq	1064(%rbx), %rax
	movq	1080(%rax), %rdx
	testb	$1, 2(%rdx)
	je	.L1416
	testb	$64, 99(%rax)
	je	.L1416
.L1365:
	xorl	%eax, %eax
	testl	%r14d, %r14d
	cmovns	%r14d, %eax
	movb	%al, 1012(%rbx)
	jmp	.L1416
	.p2align 4,,10
	.p2align 3
.L1338:
	movl	$16, %eax
	movq	%rdx, 944(%rbx)
	movl	$16, %esi
	movw	%ax, 992(%rbx)
.L1357:
	andl	$1024, %r13d
	jne	.L1416
	jmp	.L1356
	.p2align 4,,10
	.p2align 3
.L1615:
	movq	968(%rbx), %rdx
	movl	336(%rbx), %eax
	xorq	%rdx, %rax
	testl	$2147479552, %eax
	je	.L1605
	movl	384(%rbx), %eax
	xorq	%rdx, %rax
	testl	$2147479552, %eax
	jne	.L1361
	orl	$2, %ebp
	movl	%ebp, 792(%rbx)
.L1605:
	movzbl	99(%rbx), %edx
	jmp	.L1360
	.p2align 4,,10
	.p2align 3
.L1367:
	movzbl	1144(%rbx), %edi
	andl	$2147479552, %ebp
.L1426:
	movl	%ebp, %eax
	orl	$4, %eax
.L1414:
	orl	976(%rbx), %eax
	movl	%eax, %ebp
	movl	%eax, 792(%rbx)
	xorl	%eax, %eax
	testl	%r14d, %r14d
	cmovns	%r14d, %eax
	andl	$2, %edi
	movb	%al, 1012(%rbx)
	jne	.L1617
.L1415:
	movl	$4, %esi
	movq	%rbx, %rdi
	call	*2032(%rbx)
	movzwl	992(%rbx), %esi
	jmp	.L1416
	.p2align 4,,10
	.p2align 3
.L1373:
	movq	%rbx, %rdi
	movl	$5, %esi
	call	*2032(%rbx)
	movzbl	994(%rbx), %eax
	movzbl	1144(%rbx), %edi
	andl	$6, %eax
.L1394:
	andl	$2147479552, %ebp
	testb	%al, %al
	movl	%ebp, 792(%rbx)
	movl	%ebp, %eax
	je	.L1414
	andb	$3, %r13b
	je	.L1414
	jmp	.L1426
	.p2align 4,,10
	.p2align 3
.L1283:
	movl	$0, 976(%rbx)
	jmp	.L1285
	.p2align 4,,10
	.p2align 3
.L1614:
	cmpb	$0, 44216(%rbx,%r12)
	je	.L1618
	testb	$1, %al
	jne	.L1334
.L1336:
	testl	$256, %r13d
	jne	.L1334
	movzbl	45240(%rbx,%r12), %eax
	xorl	%r11d, %r11d
	movl	18616(%r9), %esi
	testb	%al, %al
	je	.L1337
	andl	$3, %eax
	leal	(%rax,%rax), %edx
	movzbl	994(%rbx), %eax
	andl	$-7, %eax
	orl	%edx, %eax
	movb	%al, 994(%rbx)
	jmp	.L1337
	.p2align 4,,10
	.p2align 3
.L1339:
	movl	$5, %edi
	movl	$5, %esi
	movw	%di, 992(%rbx)
	jmp	.L1353
.L1613:
	movq	1064(%rbx), %rax
	movq	1080(%rax), %rdx
	testb	$1, 2(%rdx)
	je	.L1333
	testb	$64, 99(%rax)
	je	.L1333
	movslq	%r11d, %rcx
	movl	584(%rax,%rcx,4), %eax
	movq	%rcx, 16(%rsp)
	movl	%eax, 8(%rsp)
	jmp	.L1292
.L1618:
	movl	2232(%r9), %eax
	cmpq	%rax, %rcx
	jne	.L1334
	jmp	.L1336
.L1340:
	cmpl	88(%rbx), %ecx
	jne	.L1342
	movl	%ecx, %edx
	.p2align 4,,6
	jmp	.L1341
.L1295:
	movzwl	394(%rbx), %eax
	testl	$-33554432, 8(%rsp)
	movw	%ax, 32(%rsp)
	je	.L1619
.L1296:
	movl	$40, %r10d
	movl	$40, %esi
	movw	%r10w, 992(%rbx)
.L1331:
	movb	%r14b, 1012(%rbx)
	jmp	.L1416
.L1616:
	testb	$127, %dl
	jne	.L1364
	orl	$-2147483646, %ebp
	movl	%ebp, 792(%rbx)
	jmp	.L1360
.L1361:
	movl	432(%rbx), %eax
	xorq	%rdx, %rax
	testl	$2147479552, %eax
	jne	.L1362
	orl	$3, %ebp
	movzbl	99(%rbx), %edx
	movl	%ebp, 792(%rbx)
	jmp	.L1360
.L1619:
	testl	$16777216, 8(%rsp)
	je	.L1297
	movl	368(%rbx), %eax
	andl	$2147483584, %eax
.L1298:
	movl	%eax, %edx
	cmpq	1040(%rbx), %rdx
	jbe	.L1620
.L1299:
	movl	$5, %r11d
	movl	$5, %esi
	movw	%r11w, 992(%rbx)
.L1330:
	movq	%rbx, %rdi
	call	*2032(%rbx)
	jmp	.L1296
.L1346:
	movl	$17, %edx
	movq	%r11, 944(%rbx)
	movw	%dx, 992(%rbx)
.L1604:
	movl	$17, %esi
	jmp	.L1357
.L1297:
	movl	344(%rbx), %eax
	andl	$2147483584, %eax
	jmp	.L1298
.L1362:
	orl	$1, %ebp
	movzbl	99(%rbx), %edx
	movl	%ebp, 792(%rbx)
	jmp	.L1360
.L1620:
	movl	%eax, %edx
	andl	$2147479552, %edx
	je	.L1300
	cmpl	88(%rbx), %edx
	je	.L1300
.L1301:
	addl	$16, %eax
	testb	$2, %dil
	movl	%eax, %ecx
	jne	.L1621
.L1302:
	movq	%rcx, %rax
	movzwl	8(%rsp), %edx
	shrq	$11, %rax
	addq	1032(%rbx), %rax
	orb	$4, (%rax)
	movq	1024(%rbx), %rax
	movl	(%rax,%rcx), %eax
	movl	%edx, %ecx
	shrl	$3, %ecx
	bswap	%eax
	movl	%eax, %esi
	andl	$127, %esi
	cmpl	%ecx, %esi
	jae	.L1622
.L1305:
	movw	$41, 992(%rbx)
	movl	$41, %esi
	jmp	.L1331
.L1347:
	movl	%eax, %r11d
	xorl	88(%rbx), %r11d
	jmp	.L1348
.L1300:
	xorl	88(%rbx), %eax
	jmp	.L1301
.L1349:
	testl	$512, %r13d
	movq	%r11, 944(%rbx)
	movw	$17, 992(%rbx)
	je	.L1604
	jmp	.L1274
.L1622:
	andl	$2147483520, %eax
	sall	$4, %edx
	addl	%edx, %eax
	movl	%eax, %edi
	cmpq	1040(%rbx), %rdi
	ja	.L1299
	movl	%eax, %edx
	andl	$2147479552, %edx
	je	.L1306
	cmpl	88(%rbx), %edx
	je	.L1306
.L1307:
	movq	%rbx, %rsi
	movq	%r10, 48(%rsp)
	movl	%r11d, 44(%rsp)
	call	s390_fetch_main_absolute
	movl	44(%rsp), %r11d
	xorl	%edx, %edx
	movq	48(%rsp), %r10
.L1309:
	movl	(%rax,%rdx), %ecx
	bswap	%ecx
	movl	%ecx, 64(%rsp,%rdx)
	addq	$4, %rdx
	cmpq	$16, %rdx
	jne	.L1309
	movl	64(%rsp), %eax
	testl	%eax, %eax
	movl	%eax, 44(%rsp)
	js	.L1305
	movl	%r13d, %eax
	andl	$2048, %eax
	movl	%eax, 48(%rsp)
	jne	.L1310
	movl	8(%rsp), %eax
	xorl	44(%rsp), %eax
	testl	$16711680, %eax
	je	.L1310
.L1311:
	movw	$42, 992(%rbx)
	movl	$42, %esi
	jmp	.L1331
.L1609:
	addq	1024(%rbx), %rax
	jmp	.L1596
.L1608:
	movq	1056(%rbx), %rdx
	andb	$-7, 994(%rdx)
	testb	$4, %dil
	jne	.L1374
	cmpl	$1, 80(%rdx)
	movl	$-3, %esi
	je	.L1623
	testl	%r14d, %r14d
	jle	.L1378
	movq	1080(%rbx), %rcx
	testb	$1, 2(%rcx)
	je	.L1378
	testb	$64, 99(%rbx)
	cmovne	%r14d, %esi
.L1378:
	addq	1096(%rbx), %rax
	xorl	%ecx, %ecx
	movq	%r10, 16(%rsp)
	movl	%r8d, 8(%rsp)
	movq	%rax, %rdi
	call	z900_translate_addr
	movq	16(%rsp), %r10
	movl	8(%rsp), %r8d
	testl	%eax, %eax
	setne	%al
.L1377:
	testb	%al, %al
	jne	.L1624
.L1379:
	movzbl	994(%rbx), %eax
	movq	1056(%rbx), %rdx
	movl	%eax, %ecx
	andl	$-7, %eax
	orb	994(%rdx), %cl
	andl	$6, %ecx
	orl	%ecx, %eax
	movb	%al, 994(%rbx)
	movzbl	994(%rdx), %eax
	shrb	%al
	andl	$3, %eax
	orb	%al, 45240(%rbx,%r12)
	testb	$4, 96(%rbx)
	je	.L1380
	cmpl	$-2, %r14d
	je	.L1380
.L1381:
	testl	%r14d, %r14d
	jle	.L1382
	movq	1080(%rbx), %rcx
	testb	$1, 2(%rcx)
	je	.L1382
	testb	$64, 99(%rbx)
	je	.L1382
	movq	968(%rbx), %rcx
	leal	5(%r14), %edi
	andl	$2, %eax
	leal	16(%r14), %r8d
	movslq	%edi, %rdi
	movl	%ecx, 2232(%rbx,%r12,8)
	movzbl	994(%rdx), %esi
	movzbl	994(%rbx), %ecx
	andl	$1, %esi
	andl	$-2, %ecx
	orl	%esi, %ecx
	movb	%cl, 994(%rbx)
	movq	968(%rdx), %rcx
	leal	17(%r14), %esi
	movslq	%esi, %rsi
	xorb	$8, %ch
	movq	%rcx, 968(%rbx)
	movl	%ecx, 320(%rbx,%rsi,8)
	shrq	$8, %rcx
	xorq	$1, %rcx
	movl	%r8d, 1892(%rbx,%rdi,4)
	andl	$1, %ecx
	movb	%cl, 1976(%rbx,%rsi)
	movslq	%r14d, %rcx
	movb	%al, 2009(%rbx,%rcx)
.L1382:
	movq	944(%rdx), %rax
	movl	%eax, %esi
	movl	%eax, %ecx
	andl	$2147479552, %esi
	je	.L1383
	cmpl	88(%rdx), %esi
	je	.L1383
.L1384:
	movq	960(%rdx), %rsi
	movq	%rax, 952(%rdx)
	movl	%esi, %edi
	movl	%esi, %ecx
	andl	$2147479552, %edi
	je	.L1385
	cmpl	88(%rdx), %edi
	je	.L1385
.L1386:
	cmpq	1040(%rdx), %rax
	ja	.L1373
	movzbl	1144(%rbx), %edi
	jmp	.L1374
.L1610:
	movl	%edx, %r8d
	andl	$-16, %r8d
	cmpb	%r8b, %r15b
	je	.L1390
	testb	$8, %dl
	je	.L1390
	cmpl	$2047, %ebp
	ja	.L1392
	testb	$2, 331(%rbx)
	je	.L1392
	testb	$1, 994(%rbx)
	je	.L1390
.L1392:
	cmpb	$-112, %r8b
	je	.L1625
.L1393:
	testb	$2, %dil
	jne	.L1421
	movzbl	994(%rbx), %r8d
.L1425:
	movl	%r8d, %eax
	andl	$6, %eax
	jmp	.L1394
.L1389:
	cmpl	$511, %ebp
	movzbl	(%rcx), %r11d
	jbe	.L1598
	movzbl	994(%rbx), %r8d
.L1395:
	testb	$6, %r8b
	jne	.L1396
	movl	%edi, %r9d
	shrb	%r9b
	andb	$1, %r9b
	jne	.L1626
.L1397:
	testb	%r15b, %r15b
	je	.L1399
	movl	%r11d, %edx
	andl	$-16, %edx
	cmpb	$-112, %dl
	je	.L1627
.L1400:
	cmpb	%dl, %r15b
	je	.L1399
.L1396:
	testb	$2, %dil
	je	.L1425
	movq	1056(%rbx), %rdx
.L1398:
	andb	$-7, 994(%rdx)
	movzbl	994(%rbx), %eax
	andl	$6, %eax
	jmp	.L1394
.L1598:
	testb	$16, 331(%rbx)
	movzbl	994(%rbx), %r8d
	je	.L1395
	testb	$1, %r8b
	jne	.L1395
	jmp	.L1396
.L1380:
	movl	%r8d, 18616(%rbx,%r12,8)
	jmp	.L1381
.L1306:
	movl	%eax, %edi
	xorl	88(%rbx), %edi
	jmp	.L1307
.L1385:
	movl	%ecx, %esi
	xorl	88(%rdx), %esi
	jmp	.L1386
.L1383:
	movl	%ecx, %eax
	xorl	88(%rdx), %eax
	jmp	.L1384
.L1625:
	testb	$1, 331(%rbx)
	je	.L1393
	jmp	.L1390
.L1421:
	movq	1056(%rbx), %rax
	andb	$-7, 994(%rax)
	movzbl	994(%rbx), %eax
	andl	$6, %eax
	jmp	.L1394
.L1310:
	movl	72(%rsp), %edx
	movl	%edx, %eax
	andl	$2147483584, %eax
	andl	$2147479552, %edx
	je	.L1312
	cmpl	88(%rbx), %edx
	je	.L1312
.L1313:
	movl	%eax, %edi
	cmpq	1040(%rbx), %rdi
	ja	.L1299
	movq	%rbx, %rsi
	movq	%r10, 56(%rsp)
	movl	%r11d, 8(%rsp)
	call	s390_fetch_main_absolute
	movl	8(%rsp), %r11d
	xorl	%edx, %edx
	movq	56(%rsp), %r10
.L1315:
	movl	(%rax,%rdx), %ecx
	bswap	%ecx
	movl	%ecx, 80(%rsp,%rdx)
	addq	$4, %rdx
	cmpq	$64, %rdx
	jne	.L1315
	movl	80(%rsp), %eax
	testl	%eax, %eax
	js	.L1316
	movl	76(%rsp), %edi
	cmpl	%edi, 100(%rsp)
	je	.L1628
.L1317:
	movw	$44, 992(%rbx)
	movl	$44, %esi
	jmp	.L1331
.L1627:
	testb	$1, 331(%rbx)
	je	.L1400
.L1399:
	testb	%r9b, %r9b
	jne	.L1629
.L1424:
	testb	$2, %r13b
	je	.L1402
	orl	$6, %r11d
	movb	%r11b, (%rcx)
.L1402:
	movq	984(%rbx), %rdx
	leaq	(%rbx,%r12,8), %rcx
	movq	%rdx, 35000(%rcx)
	movzbl	(%rdx), %edx
	andl	$-16, %edx
	cmpl	$4095, %ebp
	movb	%dl, 43192(%rbx,%r12)
	ja	.L1403
	testb	$1, 994(%rbx)
	movl	$4, %edx
	je	.L1404
.L1403:
	movl	%r13d, %edx
	orl	$5, %edx
.L1404:
	movb	%dl, 46264(%rbx,%r12)
	movq	1024(%rbx), %rdx
	movl	%ebp, %edi
	andl	$2147479552, %edi
	addq	%rdx, %rsi
	xorq	%rdi, %rsi
	movq	%rsi, 26808(%rcx)
	testb	$4, 808(%rbx)
	je	.L1405
	testb	$32, 54(%rbx)
	je	.L1405
	movb	$4, 46264(%rbx,%r12)
	cmpl	$-2, %r14d
	je	.L1405
	testb	$4, 96(%rbx)
	je	.L1406
	testb	$-128, 968(%rbx)
	jne	.L1407
	testb	$32, 402(%rbx)
	jne	.L1405
.L1407:
	xorl	%ecx, %ecx
	testl	%r14d, %r14d
	cmovns	%r14d, %ecx
	movb	%cl, 1160(%rbx)
	movl	976(%rbx), %ecx
	orw	%cx, 1146(%rbx)
.L1406:
	movl	416(%rbx), %ecx
	movl	408(%rbx), %esi
	andl	$2147483647, %ecx
	andl	$2147483647, %esi
	cmpl	%esi, %ecx
	jb	.L1408
	cmpl	%esi, %ebp
	jb	.L1409
	cmpl	%ecx, %ebp
	movl	$1, %edi
	jbe	.L1413
.L1409:
	movl	%ebp, %edi
	leaq	-1(%r10,%rdi), %r8
	movl	%esi, %edi
	cmpq	%rdi, %r8
	jb	.L1411
	movl	%ecx, %r9d
	movl	$1, %edi
	cmpq	%r9, %r8
	jbe	.L1413
.L1411:
	xorl	%edi, %edi
	cmpl	%esi, %ebp
	ja	.L1413
	xorl	%edi, %edi
	cmpq	%rcx, %r8
	setae	%dil
.L1413:
	andl	$1, %edi
	testb	%dil, %dil
	je	.L1405
	orl	$2097152, 56(%rbx)
	jmp	.L1405
.L1408:
	movl	%ebp, %edi
	leaq	-1(%r10,%rdi), %r8
	movl	$1, %edi
	cmpq	%rsi, %r8
	jae	.L1413
	xorl	%edi, %edi
	cmpl	%ecx, %ebp
	setbe	%dil
	jmp	.L1413
.L1629:
	movq	1056(%rbx), %rdx
	testb	$6, 994(%rdx)
	je	.L1424
	movl	%ebp, %eax
	andl	$2147479552, %eax
	jmp	.L1414
.L1626:
	movq	1056(%rbx), %rdx
	testb	$6, 994(%rdx)
	je	.L1397
	jmp	.L1398
.L1312:
	xorl	88(%rbx), %eax
	jmp	.L1313
.L1628:
	cmpl	$0, 48(%rsp)
	.p2align 4,,3
	jne	.L1318
	testl	$16777216, 44(%rsp)
	je	.L1318
	movzwl	44(%rsp), %edi
	cmpw	%di, 32(%rsp)
	je	.L1318
	testb	$2, %al
	je	.L1630
.L1319:
	movw	$23, 992(%rbx)
	movl	$23, %esi
	jmp	.L1330
.L1316:
	movw	$43, 992(%rbx)
	movl	$43, %esi
	jmp	.L1331
.L1630:
	movl	84(%rsp), %ecx
	testb	$15, %cl
	jne	.L1319
	testb	$1, %al
	je	.L1320
	testb	$1, 330(%rbx)
	je	.L1319
.L1320:
	movzwl	32(%rsp), %edi
	andl	$65520, %ecx
	andl	$2147483644, %eax
	movl	%edi, %edx
	andl	$65520, %edx
	cmpl	%edx, %ecx
	jl	.L1328
	movl	%edi, %edx
	shrw	$2, %dx
	movzwl	%dx, %edx
	addl	%eax, %edx
	movl	%edx, %eax
	andl	$2147483647, %eax
	movl	%eax, %ecx
	cmpq	1040(%rbx), %rcx
	ja	.L1322
	andl	$2147479552, %edx
	je	.L1323
	cmpl	88(%rbx), %edx
	je	.L1323
.L1324:
	movzbl	1144(%rbx), %edx
	testb	$2, %dl
	jne	.L1631
.L1325:
	movq	1024(%rbx), %rcx
	movl	%eax, %edx
	shrl	$11, %eax
	addq	1032(%rbx), %rax
	movzbl	(%rcx,%rdx), %edx
	movl	32(%rsp), %ecx
	orb	$4, (%rax)
	andl	$3, %ecx
	addl	%ecx, %ecx
	sall	%cl, %edx
	andb	$64, %dl
	jne	.L1318
.L1328:
	movw	$45, 992(%rbx)
	movl	$45, %esi
	jmp	.L1331
.L1624:
	movq	1056(%rbx), %rax
	movq	%r10, 16(%rsp)
	movl	%r8d, 8(%rsp)
	movzwl	992(%rax), %esi
	movq	%rax, %rdi
	call	*2032(%rax)
	movq	16(%rsp), %r10
	movl	8(%rsp), %r8d
	jmp	.L1379
.L1623:
	testl	%r14d, %r14d
	jle	.L1376
	movq	1080(%rbx), %rcx
	testb	$1, 2(%rcx)
	je	.L1376
	testb	$64, 99(%rbx)
	cmovne	%r14d, %esi
.L1376:
	movl	1096(%rbx), %edi
	xorl	%ecx, %ecx
	movq	%r10, 16(%rsp)
	movl	%r8d, 8(%rsp)
	addl	%eax, %edi
	call	s390_translate_addr
	movl	8(%rsp), %r8d
	testl	%eax, %eax
	movq	16(%rsp), %r10
	setne	%al
	jmp	.L1377
.L1617:
	movq	1056(%rbx), %rdx
	testb	$6, 994(%rdx)
	je	.L1415
	movl	$4, %esi
	movl	%ebp, 792(%rdx)
	movq	%rdx, %rdi
	movb	%al, 1012(%rdx)
	call	*2032(%rdx)
	movzwl	992(%rbx), %esi
	jmp	.L1416
.L1621:
	andb	$4, %dil
	jne	.L1302
	movq	1056(%rbx), %rdx
	movq	%r10, 48(%rsp)
	movl	%r11d, 44(%rsp)
	cmpl	$1, 80(%rdx)
	je	.L1632
	movq	%rcx, %rdi
	movl	$1, %r9d
	xorl	%r8d, %r8d
	addq	1096(%rbx), %rdi
	movl	$4, %ecx
	movl	$-3, %esi
	call	z900_logical_to_main_l
	movq	48(%rsp), %r10
	movl	44(%rsp), %r11d
.L1304:
	movq	1056(%rbx), %rax
	movq	952(%rax), %rcx
	jmp	.L1302
.L1318:
	testl	$33554432, 44(%rsp)
	je	.L1329
	movzbl	994(%rbx), %eax
	andl	$-7, %eax
	orl	$4, %eax
	movb	%al, 994(%rbx)
.L1329:
	movl	$1, 976(%rbx)
	movl	88(%rsp), %eax
	movzbl	994(%rbx), %esi
	movl	%eax, %edx
	shrb	%sil
	movq	%rdx, 968(%rbx)
	andb	$2, %sil
	je	.L1633
	xorb	$12, %ah
	orl	$256, %eax
	movq	%rax, 968(%rbx)
.L1418:
	leal	17(%r11), %edx
	movq	24(%rsp), %rdi
	leal	16(%r11), %ecx
	movslq	%edx, %rdx
	movl	%eax, 320(%rbx,%rdx,8)
	shrq	$8, %rax
	xorq	$1, %rax
	andl	$1, %eax
	movl	%ecx, 1892(%rdi)
	movb	%al, 1976(%rbx,%rdx)
	movq	16(%rsp), %rax
	movb	%sil, 2009(%rbx,%rax)
	jmp	.L1286
.L1323:
	xorl	88(%rbx), %eax
	jmp	.L1324
.L1631:
	andb	$4, %dl
	jne	.L1325
	movq	1056(%rbx), %rdx
	movq	%r10, 48(%rsp)
	movl	%r11d, 8(%rsp)
	cmpl	$1, 80(%rdx)
	je	.L1634
	movl	%eax, %edi
	movl	$1, %r9d
	xorl	%r8d, %r8d
	addq	1096(%rbx), %rdi
	xorl	%ecx, %ecx
	movl	$-3, %esi
	call	z900_logical_to_main_l
	movq	48(%rsp), %r10
	movl	8(%rsp), %r11d
.L1327:
	movq	1056(%rbx), %rax
	movl	952(%rax), %eax
	jmp	.L1325
.L1632:
	addl	1096(%rbx), %eax
	movl	$1, %r9d
	xorl	%r8d, %r8d
	movl	$4, %ecx
	movl	$-3, %esi
	movl	%eax, %edi
	call	s390_logical_to_main_l
	movl	44(%rsp), %r11d
	movq	48(%rsp), %r10
	jmp	.L1304
.L1634:
	addl	1096(%rbx), %eax
	movl	$1, %r9d
	xorl	%r8d, %r8d
	xorl	%ecx, %ecx
	movl	$-3, %esi
	movl	%eax, %edi
	call	s390_logical_to_main_l
	movl	8(%rsp), %r11d
	movq	48(%rsp), %r10
	jmp	.L1327
.L1322:
	movl	$5, %esi
	movq	%rbx, %rdi
	call	*2032(%rbx)
	jmp	.L1328
.L1633:
	movq	%rdx, %rax
	jmp	.L1418
	.cfi_endproc
.LFE1148:
	.size	s390_logical_to_main_l, .-s390_logical_to_main_l
	.p2align 4,,15
	.type	s370_fetch_main_absolute, @function
s370_fetch_main_absolute:
.LFB130:
	.cfi_startproc
	pushq	%rbx
	.cfi_def_cfa_offset 16
	.cfi_offset 3, -16
	movq	%rsi, %rbx
	movzbl	1144(%rsi), %eax
	testb	$2, %al
	jne	.L1641
.L1636:
	movq	%rdi, %rdx
	movq	%rdi, %rax
	shrq	$11, %rdx
	addq	1032(%rbx), %rdx
	orb	$4, (%rdx)
	addq	1024(%rbx), %rax
	popq	%rbx
	.cfi_remember_state
	.cfi_def_cfa_offset 8
	ret
.L1641:
	.cfi_restore_state
	testb	$4, %al
	jne	.L1636
	addl	1096(%rsi), %edi
	movl	$1, %r9d
	xorl	%r8d, %r8d
	movq	1056(%rsi), %rdx
	movl	$4, %ecx
	movl	$-3, %esi
	call	s390_logical_to_main_l
	movq	1056(%rbx), %rax
	movq	952(%rax), %rdi
	jmp	.L1636
	.cfi_endproc
.LFE130:
	.size	s370_fetch_main_absolute, .-s370_fetch_main_absolute
	.p2align 4,,15
	.type	s390_fetch_main_absolute, @function
s390_fetch_main_absolute:
.LFB1126:
	.cfi_startproc
	pushq	%rbx
	.cfi_def_cfa_offset 16
	.cfi_offset 3, -16
	movq	%rsi, %rbx
	movzbl	1144(%rsi), %eax
	testb	$2, %al
	jne	.L1650
.L1643:
	movq	%rdi, %rdx
	movq	%rdi, %rax
	shrq	$11, %rdx
	addq	1032(%rbx), %rdx
	orb	$4, (%rdx)
	addq	1024(%rbx), %rax
	popq	%rbx
	.cfi_remember_state
	.cfi_def_cfa_offset 8
	ret
.L1650:
	.cfi_restore_state
	testb	$4, %al
	jne	.L1643
	movq	1056(%rsi), %rdx
	cmpl	$1, 80(%rdx)
	je	.L1651
	addq	1096(%rsi), %rdi
	movl	$1, %r9d
	xorl	%r8d, %r8d
	movl	$4, %ecx
	movl	$-3, %esi
	call	z900_logical_to_main_l
.L1645:
	movq	1056(%rbx), %rax
	movq	952(%rax), %rdi
	jmp	.L1643
.L1651:
	addl	1096(%rsi), %edi
	movl	$1, %r9d
	xorl	%r8d, %r8d
	movl	$4, %ecx
	movl	$-3, %esi
	call	s390_logical_to_main_l
	jmp	.L1645
	.cfi_endproc
.LFE1126:
	.size	s390_fetch_main_absolute, .-s390_fetch_main_absolute
	.section	.text.unlikely
	.type	s390_vfetch2_full, @function
s390_vfetch2_full:
.LFB1160:
	.cfi_startproc
	pushq	%r14
	.cfi_def_cfa_offset 16
	.cfi_offset 14, -16
	leal	5(%rsi), %eax
	pushq	%r13
	.cfi_def_cfa_offset 24
	.cfi_offset 13, -24
	cltq
	movl	%esi, %r13d
	pushq	%r12
	.cfi_def_cfa_offset 32
	.cfi_offset 12, -32
	leaq	(%rdx,%rax,4), %r14
	pushq	%rbp
	.cfi_def_cfa_offset 40
	.cfi_offset 6, -40
	movl	%edi, %ebp
	pushq	%rbx
	.cfi_def_cfa_offset 48
	.cfi_offset 3, -48
	movq	%rdx, %rbx
	movl	1892(%r14), %eax
	testl	%eax, %eax
	je	.L1653
	movl	%edi, %ecx
	incl	%eax
	shrl	$12, %ecx
	cltq
	andl	$1023, %ecx
	leaq	(%rdx,%rcx,8), %rdx
	movl	2232(%rdx), %edi
	cmpl	%edi, 320(%rbx,%rax,8)
	je	.L1654
	movb	1976(%rbx,%rax), %al
	testb	%al, 44216(%rbx,%rcx)
	je	.L1653
.L1654:
	movb	97(%rbx), %al
	testb	%al, %al
	je	.L1655
	cmpb	43192(%rbx,%rcx), %al
	jne	.L1653
.L1655:
	movl	%ebp, %eax
	andl	$2143289344, %eax
	orl	2224(%rbx), %eax
	cmpl	10424(%rdx), %eax
	jne	.L1653
	testb	$4, 46264(%rbx,%rcx)
	je	.L1653
	movl	%ebp, %eax
	xorq	26808(%rdx), %rax
	jmp	.L1656
.L1653:
	movzbl	97(%rbx), %r8d
	movl	$1, %r9d
	movl	$4, %ecx
	movq	%rbx, %rdx
	movl	%r13d, %esi
	movl	%ebp, %edi
	call	s390_logical_to_main_l
.L1656:
	movzbl	(%rax), %r12d
	leal	1(%rbp), %edi
	movl	1892(%r14), %eax
	sall	$8, %r12d
	testl	%eax, %eax
	je	.L1657
	movl	120(%rbx), %ecx
	incl	%eax
	cltq
	andl	%edi, %ecx
	movl	%ecx, %esi
	shrl	$12, %esi
	andl	$1023, %esi
	leaq	(%rbx,%rsi,8), %rdx
	movl	2232(%rdx), %r10d
	cmpl	%r10d, 320(%rbx,%rax,8)
	je	.L1658
	movb	1976(%rbx,%rax), %al
	testb	%al, 44216(%rbx,%rsi)
	je	.L1657
.L1658:
	movb	97(%rbx), %al
	testb	%al, %al
	je	.L1659
	cmpb	43192(%rbx,%rsi), %al
	jne	.L1657
.L1659:
	movl	%ecx, %eax
	andl	$2143289344, %eax
	orl	2224(%rbx), %eax
	cmpl	10424(%rdx), %eax
	jne	.L1657
	testb	$4, 46264(%rbx,%rsi)
	je	.L1657
	movl	%ecx, %eax
	xorq	26808(%rdx), %rax
	jmp	.L1660
.L1657:
	andl	120(%rbx), %edi
	movl	$1, %r9d
	movl	$4, %ecx
	movzbl	97(%rbx), %r8d
	movq	%rbx, %rdx
	movl	%r13d, %esi
	call	s390_logical_to_main_l
.L1660:
	popq	%rbx
	.cfi_def_cfa_offset 40
	movzbl	(%rax), %eax
	popq	%rbp
	.cfi_def_cfa_offset 32
	orl	%r12d, %eax
	popq	%r12
	.cfi_def_cfa_offset 24
	popq	%r13
	.cfi_def_cfa_offset 16
	popq	%r14
	.cfi_def_cfa_offset 8
	ret
	.cfi_endproc
.LFE1160:
	.size	s390_vfetch2_full, .-s390_vfetch2_full
	.type	s390_validate_operand.part.8, @function
s390_validate_operand.part.8:
.LFB3142:
	.cfi_startproc
	addl	%edx, %edi
	movq	%r8, %rax
	movl	$1, %r9d
	andl	120(%r8), %edi
	movq	%rax, %rdx
	movzbl	97(%r8), %r8d
	jmp	s390_logical_to_main_l
	.cfi_endproc
.LFE3142:
	.size	s390_validate_operand.part.8, .-s390_validate_operand.part.8
	.type	s390_vfetch4_full, @function
s390_vfetch4_full:
.LFB1162:
	.cfi_startproc
	pushq	%r14
	.cfi_def_cfa_offset 16
	.cfi_offset 14, -16
	leal	5(%rsi), %eax
	pushq	%r13
	.cfi_def_cfa_offset 24
	.cfi_offset 13, -24
	cltq
	movl	%esi, %r13d
	pushq	%r12
	.cfi_def_cfa_offset 32
	.cfi_offset 12, -32
	leaq	(%rdx,%rax,4), %r14
	pushq	%rbp
	.cfi_def_cfa_offset 40
	.cfi_offset 6, -40
	movl	%edi, %ebp
	pushq	%rbx
	.cfi_def_cfa_offset 48
	.cfi_offset 3, -48
	movq	%rdx, %rbx
	subq	$16, %rsp
	.cfi_def_cfa_offset 64
	movl	1892(%r14), %eax
	testl	%eax, %eax
	je	.L1688
	movl	%edi, %ecx
	incl	%eax
	shrl	$12, %ecx
	cltq
	andl	$1023, %ecx
	leaq	(%rdx,%rcx,8), %rdx
	movl	2232(%rdx), %edi
	cmpl	%edi, 320(%rbx,%rax,8)
	je	.L1689
	movb	1976(%rbx,%rax), %al
	testb	%al, 44216(%rbx,%rcx)
	je	.L1688
.L1689:
	movb	97(%rbx), %al
	testb	%al, %al
	je	.L1690
	cmpb	43192(%rbx,%rcx), %al
	jne	.L1688
.L1690:
	movl	%ebp, %eax
	andl	$2143289344, %eax
	orl	2224(%rbx), %eax
	cmpl	10424(%rdx), %eax
	jne	.L1688
	testb	$4, 46264(%rbx,%rcx)
	je	.L1688
	movl	%ebp, %eax
	xorq	26808(%rdx), %rax
	jmp	.L1691
.L1688:
	movzbl	97(%rbx), %r8d
	movl	$1, %r9d
	movl	$4, %ecx
	movq	%rbx, %rdx
	movl	%r13d, %esi
	movl	%ebp, %edi
	call	s390_logical_to_main_l
.L1691:
	movl	(%rax), %eax
	movl	$2048, %r12d
	movl	%eax, (%rsp)
	movl	%ebp, %eax
	andl	$2047, %eax
	subl	%eax, %r12d
	movl	1892(%r14), %eax
	leal	(%r12,%rbp), %edi
	testl	%eax, %eax
	je	.L1692
	movl	120(%rbx), %ecx
	incl	%eax
	cltq
	andl	%edi, %ecx
	movl	%ecx, %esi
	shrl	$12, %esi
	andl	$1023, %esi
	leaq	(%rbx,%rsi,8), %rdx
	movl	2232(%rdx), %r10d
	cmpl	%r10d, 320(%rbx,%rax,8)
	je	.L1693
	movb	44216(%rbx,%rsi), %r8b
	testb	%r8b, 1976(%rbx,%rax)
	je	.L1692
.L1693:
	movb	97(%rbx), %al
	testb	%al, %al
	je	.L1694
	cmpb	43192(%rbx,%rsi), %al
	jne	.L1692
.L1694:
	movl	%ecx, %eax
	andl	$2143289344, %eax
	orl	2224(%rbx), %eax
	cmpl	10424(%rdx), %eax
	jne	.L1692
	testb	$4, 46264(%rbx,%rsi)
	je	.L1692
	movl	%ecx, %eax
	xorq	26808(%rdx), %rax
	jmp	.L1695
.L1692:
	andl	120(%rbx), %edi
	movl	$1, %r9d
	movl	$4, %ecx
	movzbl	97(%rbx), %r8d
	movq	%rbx, %rdx
	movl	%r13d, %esi
	call	s390_logical_to_main_l
.L1695:
	movl	(%rax), %eax
	movl	%eax, (%rsp,%r12)
	movl	(%rsp), %eax
	addq	$16, %rsp
	.cfi_def_cfa_offset 48
	popq	%rbx
	.cfi_def_cfa_offset 40
	bswap	%eax
	popq	%rbp
	.cfi_def_cfa_offset 32
	popq	%r12
	.cfi_def_cfa_offset 24
	popq	%r13
	.cfi_def_cfa_offset 16
	popq	%r14
	.cfi_def_cfa_offset 8
	ret
	.cfi_endproc
.LFE1162:
	.size	s390_vfetch4_full, .-s390_vfetch4_full
	.type	s390_vstore4_full, @function
s390_vstore4_full:
.LFB1154:
	.cfi_startproc
	pushq	%r15
	.cfi_def_cfa_offset 16
	.cfi_offset 15, -16
	movl	%esi, %eax
	movl	%edi, %r11d
	pushq	%r14
	.cfi_def_cfa_offset 24
	.cfi_offset 14, -24
	andl	$2047, %eax
	movl	%edx, %r10d
	pushq	%r13
	.cfi_def_cfa_offset 32
	.cfi_offset 13, -32
	pushq	%r12
	.cfi_def_cfa_offset 40
	.cfi_offset 12, -40
	movl	%esi, %r12d
	pushq	%rbp
	.cfi_def_cfa_offset 48
	.cfi_offset 6, -48
	movl	$2048, %ebp
	subl	%eax, %ebp
	pushq	%rbx
	.cfi_def_cfa_offset 56
	.cfi_offset 3, -56
	movq	%rcx, %rbx
	leal	5(%rdx), %eax
	subq	$40, %rsp
	.cfi_def_cfa_offset 96
	movl	%ebp, %edi
	cltq
	movq	%rdi, (%rsp)
	leaq	(%rcx,%rax,4), %r15
	movl	1892(%r15), %eax
	testl	%eax, %eax
	je	.L1722
	leal	1(%rax), %edx
	movl	%esi, %ecx
	shrl	$12, %ecx
	movslq	%edx, %rdx
	andl	$1023, %ecx
	leaq	(%rbx,%rcx,8), %rax
	movl	2232(%rax), %edi
	cmpl	%edi, 320(%rbx,%rdx,8)
	je	.L1723
	movb	44216(%rbx,%rcx), %sil
	testb	%sil, 1976(%rbx,%rdx)
	je	.L1722
.L1723:
	movb	97(%rbx), %dl
	testb	%dl, %dl
	je	.L1724
	cmpb	43192(%rbx,%rcx), %dl
	jne	.L1722
.L1724:
	movl	%r12d, %edx
	andl	$2143289344, %edx
	orl	2224(%rbx), %edx
	cmpl	10424(%rax), %edx
	jne	.L1722
	testb	$1, 46264(%rbx,%rcx)
	je	.L1722
	movq	35000(%rax), %rdx
	movl	%r12d, %r13d
	movq	%rdx, 984(%rbx)
	xorq	26808(%rax), %r13
	jmp	.L1725
.L1722:
	movq	(%rsp), %r9
	movl	%r10d, %esi
	movl	$1, %ecx
	movzbl	97(%rbx), %r8d
	movq	%rbx, %rdx
	movl	%r12d, %edi
	movl	%r11d, 12(%rsp)
	movl	%r10d, 8(%rsp)
	call	s390_logical_to_main_l
	movl	12(%rsp), %r11d
	movl	8(%rsp), %r10d
	movq	%rax, %r13
.L1725:
	movl	1892(%r15), %eax
	leal	0(%rbp,%r12), %edi
	movq	984(%rbx), %r14
	testl	%eax, %eax
	je	.L1726
	leal	1(%rax), %edx
	movl	%edi, %eax
	andl	120(%rbx), %eax
	movslq	%edx, %rdx
	movl	%eax, %esi
	shrl	$12, %esi
	andl	$1023, %esi
	leaq	(%rbx,%rsi,8), %rcx
	movl	2232(%rcx), %r8d
	cmpl	%r8d, 320(%rbx,%rdx,8)
	je	.L1727
	movb	44216(%rbx,%rsi), %r8b
	testb	%r8b, 1976(%rbx,%rdx)
	je	.L1726
.L1727:
	movb	97(%rbx), %dl
	testb	%dl, %dl
	je	.L1728
	cmpb	43192(%rbx,%rsi), %dl
	jne	.L1726
.L1728:
	movl	%eax, %edx
	andl	$2143289344, %edx
	orl	2224(%rbx), %edx
	cmpl	10424(%rcx), %edx
	jne	.L1726
	testb	$2, 46264(%rbx,%rsi)
	je	.L1726
	xorq	26808(%rcx), %rax
	jmp	.L1729
.L1726:
	andl	120(%rbx), %edi
	movl	$4, %r9d
	movl	$2, %ecx
	movzbl	97(%rbx), %r8d
	subl	%ebp, %r9d
	movq	%rbx, %rdx
	movslq	%r9d, %r9
	movl	%r10d, %esi
	movl	%r11d, 8(%rsp)
	call	s390_logical_to_main_l
	movl	8(%rsp), %r11d
.L1729:
	orb	$6, (%r14)
	leaq	16(%rsp), %rsi
	movq	%r13, %rdi
	movq	(%rsp), %rcx
	bswap	%r11d
	movl	%r11d, 16(%rsp)
	rep movsb
	movq	%rax, %rdi
	movb	$4, %cl
	subl	%ebp, %ecx
	movslq	%ecx, %rcx
	rep movsb
	addq	$40, %rsp
	.cfi_def_cfa_offset 56
	popq	%rbx
	.cfi_def_cfa_offset 48
	popq	%rbp
	.cfi_def_cfa_offset 40
	popq	%r12
	.cfi_def_cfa_offset 32
	popq	%r13
	.cfi_def_cfa_offset 24
	popq	%r14
	.cfi_def_cfa_offset 16
	popq	%r15
	.cfi_def_cfa_offset 8
	ret
	.cfi_endproc
.LFE1154:
	.size	s390_vstore4_full, .-s390_vstore4_full
	.text
	.p2align 4,,15
	.type	s390_fetch_fullword_absolute, @function
s390_fetch_fullword_absolute:
.LFB1128:
	.cfi_startproc
	pushq	%rbx
	.cfi_def_cfa_offset 16
	.cfi_offset 3, -16
	movq	%rsi, %rbx
	movzbl	1144(%rsi), %eax
	testb	$2, %al
	jne	.L1763
.L1756:
	movq	%rdi, %rax
	shrq	$11, %rax
	addq	1032(%rbx), %rax
	orb	$4, (%rax)
	movq	1024(%rbx), %rax
	popq	%rbx
	.cfi_remember_state
	.cfi_def_cfa_offset 8
	movl	(%rax,%rdi), %eax
	bswap	%eax
	ret
.L1763:
	.cfi_restore_state
	testb	$4, %al
	jne	.L1756
	movq	1056(%rsi), %rdx
	cmpl	$1, 80(%rdx)
	je	.L1764
	addq	1096(%rsi), %rdi
	movl	$1, %r9d
	xorl	%r8d, %r8d
	movl	$4, %ecx
	movl	$-3, %esi
	call	z900_logical_to_main_l
.L1758:
	movq	1056(%rbx), %rax
	movq	952(%rax), %rdi
	jmp	.L1756
.L1764:
	addl	1096(%rsi), %edi
	movl	$1, %r9d
	xorl	%r8d, %r8d
	movl	$4, %ecx
	movl	$-3, %esi
	call	s390_logical_to_main_l
	jmp	.L1758
	.cfi_endproc
.LFE1128:
	.size	s390_fetch_fullword_absolute, .-s390_fetch_fullword_absolute
	.p2align 4,,15
	.type	s370_logical_to_main_l, @function
s370_logical_to_main_l:
.LFB148:
	.cfi_startproc
	pushq	%r15
	.cfi_def_cfa_offset 16
	.cfi_offset 15, -16
	movl	%esi, %r11d
	movl	%ecx, %r15d
	pushq	%r14
	.cfi_def_cfa_offset 24
	.cfi_offset 14, -24
	movl	%r8d, %r10d
	pushq	%r13
	.cfi_def_cfa_offset 32
	.cfi_offset 13, -32
	movl	%edi, %r13d
	pushq	%r12
	.cfi_def_cfa_offset 40
	.cfi_offset 12, -40
	shrl	$11, %r13d
	movl	%edi, %r12d
	pushq	%rbp
	.cfi_def_cfa_offset 48
	.cfi_offset 6, -48
	andl	$1023, %r13d
	pushq	%rbx
	.cfi_def_cfa_offset 56
	.cfi_offset 3, -56
	movq	%rdx, %rbx
	subq	$56, %rsp
	.cfi_def_cfa_offset 112
	testb	$8, 98(%rdx)
	movq	%r9, (%rsp)
	je	.L1766
	testb	$4, 96(%rdx)
	jne	.L1986
.L1766:
	movl	%r12d, %eax
	movslq	%r13d, %rbp
	movl	%r12d, %r14d
	movq	%rax, 944(%rbx)
	movl	%r12d, %eax
	andl	$14680064, %r14d
	andb	$-8, 994(%rbx)
	andl	$2147481600, %eax
	movq	%rax, 960(%rbx)
	leaq	(%rbx,%rbp,8), %rax
	movl	$-1, 2232(%rax)
	movl	2224(%rbx), %edx
	movl	%r14d, 18616(%rax)
	orl	%r14d, %edx
	movl	%edx, 10424(%rax)
	movb	$0, 45240(%rbx,%rbp)
	movb	$0, 44216(%rbx,%rbp)
	movb	$0, 46264(%rbx,%rbp)
.L1768:
	testb	$6, 994(%rbx)
	je	.L1822
	testb	$3, %r15b
	jne	.L1984
.L1822:
	movq	944(%rbx), %rax
	movl	88(%rbx), %edx
	movl	%eax, %esi
	movl	%eax, %ecx
	andl	$2147479552, %esi
	jne	.L1824
.L1825:
	movl	%ecx, %eax
	xorl	%edx, %eax
.L1826:
	movq	960(%rbx), %rsi
	movq	%rax, 952(%rbx)
	movl	%esi, %edi
	movl	%esi, %ecx
	andl	$2147479552, %edi
	jne	.L1987
.L1827:
	movl	%edx, %esi
	xorl	%ecx, %esi
.L1828:
	cmpq	1040(%rbx), %rax
	ja	.L1829
	movzbl	1144(%rbx), %edi
	testb	$2, %dil
	jne	.L1988
.L1830:
	movq	%rax, %rcx
	shrq	$11, %rcx
	addq	1032(%rbx), %rcx
	testb	$4, %r15b
	movq	%rcx, 984(%rbx)
	je	.L1840
	testb	%r10b, %r10b
	movzbl	(%rcx), %edx
	jne	.L1989
.L1841:
	orl	$4, %edx
	andl	$16775168, %r12d
	movb	%dl, (%rcx)
	leaq	(%rbx,%rbp,8), %rcx
	movq	984(%rbx), %rdx
	movq	%rdx, 35000(%rcx)
	movzbl	(%rdx), %edx
	movb	$4, 46264(%rbx,%rbp)
	andl	$-16, %edx
	movb	%dl, 43192(%rbx,%rbp)
	movq	1024(%rbx), %rdx
	addq	%rdx, %rsi
	xorq	%r12, %rsi
	movq	%rsi, 26808(%rcx)
.L1855:
	addq	$56, %rsp
	.cfi_remember_state
	.cfi_def_cfa_offset 56
	addq	%rdx, %rax
	popq	%rbx
	.cfi_def_cfa_offset 48
	popq	%rbp
	.cfi_def_cfa_offset 40
	popq	%r12
	.cfi_def_cfa_offset 32
	popq	%r13
	.cfi_def_cfa_offset 24
	popq	%r14
	.cfi_def_cfa_offset 16
	popq	%r15
	.cfi_def_cfa_offset 8
	ret
	.p2align 4,,10
	.p2align 3
.L1987:
	.cfi_restore_state
	cmpl	%edx, %edi
	jne	.L1828
	jmp	.L1827
	.p2align 4,,10
	.p2align 3
.L1824:
	cmpl	%edx, %esi
	jne	.L1826
	.p2align 4,,9
	jmp	.L1825
	.p2align 4,,10
	.p2align 3
.L1986:
	cmpl	$-2, %esi
	je	.L1766
	andb	$-8, 994(%rdx)
	cmpl	$-4, %esi
	je	.L1981
	jle	.L1990
	cmpl	$-3, %esi
	je	.L1779
	cmpl	$-1, %esi
	.p2align 4,,5
	jne	.L1769
	movl	$0, 976(%rdx)
	movl	1908(%rdx), %eax
	addl	$1, %eax
	cltq
	movl	320(%rdx,%rax,8), %edx
	movq	%rdx, 968(%rbx)
	.p2align 4,,10
	.p2align 3
.L1778:
	movl	328(%rbx), %esi
	movl	%esi, %eax
	andl	$12582912, %eax
	cmpl	$8388608, %eax
	jne	.L1991
.L1885:
	testl	$2621440, %esi
	jne	.L1872
	movslq	%r13d, %rbp
	movl	%r12d, %r14d
	leaq	(%rbx,%rbp,8), %rax
	andl	$14680064, %r14d
	movq	%rax, %rdi
	movq	%rax, 16(%rsp)
	movl	2224(%rbx), %eax
	orl	%r14d, %eax
	cmpl	10424(%rdi), %eax
	je	.L1992
.L1782:
	andl	$3670016, %esi
	movq	%rdx, %rcx
	movq	%r12, %rax
	andl	$16777152, %ecx
	cmpl	$1048576, %esi
	je	.L1993
	shrq	$14, %rax
	andl	$1020, %eax
	addq	%rcx, %rax
	testl	%esi, %esi
	movq	%rax, 8(%rsp)
	jne	.L1787
	movl	%r12d, %eax
	andl	$-16777216, %edx
	sall	$4, %eax
	andl	$-16777216, %eax
	cmpl	%eax, %edx
	jae	.L1787
.L1788:
	movl	$16, %eax
	movl	$16, %esi
	movw	%ax, 992(%rbx)
	movq	8(%rsp), %rax
	movq	%rax, 944(%rbx)
.L1816:
	andl	$1024, %r15d
	jne	.L1864
	.p2align 4,,10
	.p2align 3
.L1815:
	movl	976(%rbx), %eax
	andl	$2147481600, %r12d
	movl	%r12d, 792(%rbx)
	cmpl	$1, %eax
	je	.L1994
	cmpl	$2, %eax
	je	.L1995
.L1821:
	orl	%eax, %r12d
	movl	%r12d, 792(%rbx)
.L1818:
	cmpb	$64, 99(%rbx)
	jne	.L1864
	xorl	%eax, %eax
	testl	%r11d, %r11d
	cmovns	%r11d, %eax
	movb	%al, 1012(%rbx)
	jmp	.L1864
	.p2align 4,,10
	.p2align 3
.L1829:
	movl	$5, %esi
	movq	%rbx, %rdi
	call	*2032(%rbx)
.L1984:
	movzbl	1144(%rbx), %edi
.L1823:
	andl	$2, %edi
	jne	.L1996
.L1851:
	movl	$4, %esi
	movq	%rbx, %rdi
	call	*2032(%rbx)
	movzwl	992(%rbx), %esi
.L1864:
	movq	%rbx, %rdi
	call	*2032(%rbx)
	addq	$56, %rsp
	.cfi_remember_state
	.cfi_def_cfa_offset 56
	xorl	%eax, %eax
	popq	%rbx
	.cfi_def_cfa_offset 48
	popq	%rbp
	.cfi_def_cfa_offset 40
	popq	%r12
	.cfi_def_cfa_offset 32
	popq	%r13
	.cfi_def_cfa_offset 24
	popq	%r14
	.cfi_def_cfa_offset 16
	popq	%r15
	.cfi_def_cfa_offset 8
	ret
	.p2align 4,,10
	.p2align 3
.L1769:
	.cfi_restore_state
	cmpb	$-128, 99(%rbx)
	je	.L1981
.L1779:
	movl	$0, 976(%rbx)
	movl	336(%rbx), %edx
	movq	%rdx, 968(%rbx)
	jmp	.L1778
	.p2align 4,,10
	.p2align 3
.L1991:
	cmpl	$4194304, %eax
	je	.L1885
.L1872:
	movq	$0, 8(%rsp)
.L1780:
	movl	$18, %ecx
	movl	$18, %esi
	movw	%cx, 992(%rbx)
.L1812:
	movq	%rbx, %rdi
	movl	%r11d, (%rsp)
	call	*2032(%rbx)
	movl	(%rsp), %r11d
.L1793:
	andl	$1024, %r15d
	je	.L1813
	movq	8(%rsp), %rax
	movzwl	992(%rbx), %esi
	movq	%rax, 944(%rbx)
	jmp	.L1864
	.p2align 4,,10
	.p2align 3
.L1990:
	cmpl	$-5, %esi
	jne	.L1769
	movl	$3, 976(%rdx)
	movl	432(%rdx), %edx
	movq	%rdx, 968(%rbx)
	jmp	.L1778
	.p2align 4,,10
	.p2align 3
.L1981:
	movl	$2, 976(%rbx)
	movl	384(%rbx), %edx
	movq	%rdx, 968(%rbx)
	jmp	.L1778
	.p2align 4,,10
	.p2align 3
.L1813:
	movq	8(%rsp), %rax
	movl	$16, %edx
	movl	$16, %esi
	movw	%dx, 992(%rbx)
	movq	%rax, 944(%rbx)
	jmp	.L1815
.L1993:
	shrq	$18, %rax
	andl	$60, %eax
	addq	%rcx, %rax
	movq	%rax, 8(%rsp)
.L1787:
	movq	8(%rsp), %rax
	cmpq	%rax, 1040(%rbx)
	jb	.L1789
	movq	%rax, %rdi
	movl	%edi, %edx
	andl	$2147479552, %edx
	je	.L1790
	cmpl	88(%rbx), %edx
	je	.L1790
.L1791:
	movzbl	1144(%rbx), %eax
	movq	8(%rsp), %rdx
	testb	$2, %al
	jne	.L1997
.L1792:
	movq	%rdx, %rax
	shrq	$11, %rax
	addq	1032(%rbx), %rax
	orb	$4, (%rax)
	movq	1024(%rbx), %rax
	movl	(%rax,%rdx), %eax
	bswap	%eax
	testb	$1, %al
	movl	%eax, 28(%rsp)
	jne	.L1793
	testl	$251658240, %eax
	jne	.L1780
	movl	%eax, %edx
	movl	%eax, %ecx
	movl	328(%rbx), %eax
	andl	$16777208, %ecx
	andl	$-268435456, %edx
	movl	%eax, %esi
	andl	$12582912, %eax
	andl	$3670016, %esi
	cmpl	$1048576, %esi
	je	.L1998
	movl	%eax, %edi
	movq	%r12, %rax
	shrq	$10, %rax
	andl	$62, %eax
	cmpl	$8388608, %edi
	je	.L1999
.L1798:
	addq	%rcx, %rax
	cmpq	1040(%rbx), %rax
	movq	%rax, 32(%rsp)
	ja	.L1789
	testl	%esi, %esi
	jne	.L1800
	movl	%r12d, %eax
	andl	$61440, %eax
	shrl	$12, %eax
	cmpl	%eax, %edx
	jae	.L1800
.L1799:
	movw	$17, 992(%rbx)
	movq	32(%rsp), %rax
	movq	%rax, 944(%rbx)
.L1983:
	movl	$17, %esi
	jmp	.L1816
	.p2align 4,,10
	.p2align 3
.L1789:
	movl	$5, %esi
	movw	%si, 992(%rbx)
	movl	$5, %esi
	jmp	.L1812
.L1992:
	cmpb	$0, 44216(%rbx,%rbp)
	je	.L2000
	testb	$1, 994(%rbx)
	jne	.L1782
.L1784:
	testl	$256, %r15d
	jne	.L1782
	movq	16(%rsp), %rax
	movzwl	18616(%rax), %edx
	movzbl	45240(%rbx,%rbp), %eax
	testb	%al, %al
	je	.L1785
	andl	$3, %eax
	leal	(%rax,%rax), %ecx
	movzbl	994(%rbx), %eax
	andl	$-7, %eax
	orl	%ecx, %eax
	movb	%al, 994(%rbx)
.L1785:
	andl	$12582912, %esi
	cmpl	$8388608, %esi
	je	.L2001
	andl	$65528, %edx
	movl	%r12d, %eax
	andl	$2047, %eax
	sall	$8, %edx
	orl	%eax, %edx
	movl	%edx, %eax
.L1810:
	movq	%rax, 944(%rbx)
	xorl	%edi, %edi
	andl	$2147481600, %eax
	movq	%rax, 960(%rbx)
	movw	%di, 992(%rbx)
	jmp	.L1768
.L1790:
	movl	%eax, %edi
	xorl	88(%rbx), %edi
	movq	%rdi, 8(%rsp)
	jmp	.L1791
.L2000:
	movl	2232(%rdi), %eax
	cmpq	%rax, %rdx
	jne	.L1782
	jmp	.L1784
.L1994:
	movq	968(%rbx), %rdx
	movl	336(%rbx), %eax
	xorq	%rdx, %rax
	testl	$2147479552, %eax
	je	.L1818
	movl	384(%rbx), %eax
	xorq	%rdx, %rax
	testl	$2147479552, %eax
	jne	.L1819
	orl	$2, %r12d
	movl	%r12d, 792(%rbx)
	jmp	.L1818
.L1995:
	testb	$127, 99(%rbx)
	jne	.L1821
	orl	$-2147483646, %r12d
	movl	%r12d, 792(%rbx)
	jmp	.L1818
.L1998:
	cmpl	$8388608, %eax
	movq	%r12, %rax
	je	.L2002
	shrq	$10, %rax
	andl	$1022, %eax
.L1796:
	addq	%rcx, %rax
	cmpq	%rax, 1040(%rbx)
	movq	%rax, 32(%rsp)
	jb	.L1789
	movl	%r12d, %eax
	andl	$983040, %eax
	shrl	$16, %eax
	cmpl	%eax, %edx
	jb	.L1799
.L1800:
	movq	32(%rsp), %rdi
	movl	%edi, %edx
	movl	%edi, %eax
	andl	$2147479552, %edx
	je	.L1801
	cmpl	88(%rbx), %edx
	je	.L1801
.L1802:
	movzbl	1144(%rbx), %eax
	testb	$2, %al
	jne	.L2003
	movq	32(%rsp), %rdi
	movq	%rdi, %rax
	shrq	$11, %rax
	addq	1032(%rbx), %rax
	orb	$4, (%rax)
	movq	1024(%rbx), %rax
	movzwl	(%rax,%rdi), %edi
.L1870:
	movl	328(%rbx), %esi
#APP
# 545 "inline.h" 1
	rorw $8, %di
# 0 "" 2
#NO_APP
	movl	%edi, %edx
	movl	%esi, %ecx
	andl	$12582912, %ecx
	cmpl	$8388608, %ecx
	je	.L2004
	cmpl	$4194304, %ecx
	je	.L2005
.L1807:
	testb	$4, 28(%rsp)
	je	.L1808
	orb	$2, 994(%rbx)
.L1808:
	testl	$256, %r15d
	jne	.L1785
	movq	968(%rbx), %r9
	movzwl	%di, %edi
	movq	16(%rsp), %rsi
	movl	28(%rsp), %eax
	movl	%r9d, 2232(%rsi)
	movl	2224(%rbx), %r8d
	shrl	%eax
	movl	%edi, 18616(%rsi)
	andl	$1, %eax
	movb	%al, 8(%rsp)
	orl	%r14d, %r8d
	movl	%r8d, 10424(%rsi)
	movb	%al, 44216(%rbx,%rbp)
	movzbl	994(%rbx), %eax
	movb	$0, 46264(%rbx,%rbp)
	shrb	%al
	andl	$3, %eax
	cmpl	$8388608, %ecx
	movb	%al, 45240(%rbx,%rbp)
	movq	$0, 26808(%rsi)
	je	.L1972
.L1982:
	movl	328(%rbx), %esi
	jmp	.L1785
.L1819:
	movl	432(%rbx), %eax
	xorq	%rdx, %rax
	testl	$2147479552, %eax
	jne	.L1820
	orl	$3, %r12d
	movl	%r12d, 792(%rbx)
	jmp	.L1818
.L1989:
	movl	%edx, %edi
	andl	$-16, %edi
	cmpb	%dil, %r10b
	je	.L1841
	testb	$8, %dl
	je	.L1841
	movzbl	1144(%rbx), %edi
	testb	$2, %dil
	je	.L1851
	movq	1056(%rbx), %rax
	andb	$-7, 994(%rax)
	jmp	.L1823
.L1840:
	cmpl	$511, %r12d
	movzbl	(%rcx), %r9d
	ja	.L1985
	testb	$16, 331(%rbx)
	je	.L1985
	movzbl	1144(%rbx), %edi
	movzbl	994(%rbx), %edx
	testb	$1, %dil
	jne	.L1843
	testb	$1, %dl
	jne	.L1843
.L1844:
	testb	$2, %dil
	je	.L1851
	movq	1056(%rbx), %rdx
.L1846:
	andb	$-7, 994(%rdx)
	jmp	.L1823
.L1988:
	movq	1056(%rbx), %rdx
	andb	$-7, 994(%rdx)
	andb	$4, %dil
	jne	.L1830
	testl	%r11d, %r11d
	movl	$-3, %esi
	jle	.L1831
	movq	1080(%rbx), %rcx
	testb	$1, 2(%rcx)
	je	.L1831
	testb	$64, 99(%rbx)
	cmovne	%r11d, %esi
.L1831:
	movl	1096(%rbx), %edi
	xorl	%ecx, %ecx
	movl	%r10d, 16(%rsp)
	movl	%r11d, 8(%rsp)
	addl	%eax, %edi
	call	s390_translate_addr
	movl	8(%rsp), %r11d
	testl	%eax, %eax
	movl	16(%rsp), %r10d
	je	.L1832
	movq	1056(%rbx), %rax
	movzwl	992(%rax), %esi
	movq	%rax, %rdi
	call	*2032(%rax)
	movl	16(%rsp), %r10d
	movl	8(%rsp), %r11d
.L1832:
	movzbl	994(%rbx), %eax
	movq	1056(%rbx), %rdx
	movl	%eax, %ecx
	andl	$-7, %eax
	orb	994(%rdx), %cl
	andl	$6, %ecx
	orl	%ecx, %eax
	movb	%al, 994(%rbx)
	movzbl	994(%rdx), %eax
	shrb	%al
	andl	$3, %eax
	orb	%al, 45240(%rbx,%rbp)
	testb	$8, 98(%rbx)
	je	.L1833
	testb	$4, 96(%rbx)
	je	.L1833
	cmpl	$-2, %r11d
	je	.L1833
.L1834:
	testl	%r11d, %r11d
	jle	.L1835
	movq	1080(%rbx), %rcx
	testb	$1, 2(%rcx)
	je	.L1835
	testb	$64, 99(%rbx)
	je	.L1835
	movq	968(%rbx), %rcx
	leal	5(%r11), %edi
	andl	$2, %eax
	leal	16(%r11), %r8d
	movslq	%edi, %rdi
	movl	%ecx, 2232(%rbx,%rbp,8)
	movzbl	994(%rdx), %esi
	movzbl	994(%rbx), %ecx
	andl	$1, %esi
	andl	$-2, %ecx
	orl	%esi, %ecx
	movb	%cl, 994(%rbx)
	movq	968(%rdx), %rcx
	leal	17(%r11), %esi
	movslq	%esi, %rsi
	xorb	$8, %ch
	movq	%rcx, 968(%rbx)
	movl	%ecx, 320(%rbx,%rsi,8)
	shrq	%rcx
	xorq	$1, %rcx
	movl	%r8d, 1892(%rbx,%rdi,4)
	andl	$1, %ecx
	movb	%cl, 1976(%rbx,%rsi)
	movslq	%r11d, %rcx
	movb	%al, 2009(%rbx,%rcx)
.L1835:
	movq	944(%rdx), %rax
	movl	%eax, %esi
	movl	%eax, %ecx
	andl	$2147479552, %esi
	je	.L1836
	cmpl	88(%rdx), %esi
	je	.L1836
.L1837:
	movq	960(%rdx), %rsi
	movq	%rax, 952(%rdx)
	movl	%esi, %edi
	movl	%esi, %ecx
	andl	$2147479552, %edi
	je	.L1838
	cmpl	88(%rdx), %edi
	je	.L1838
.L1839:
	cmpq	1040(%rdx), %rax
	ja	.L1829
	movq	%rsi, %rdx
	orb	$8, %dh
	testl	$2048, %r12d
	cmovne	%rdx, %rsi
	jmp	.L1830
.L2001:
	movl	%edx, %eax
	andl	$65520, %edx
	andl	$6, %eax
	sall	$8, %edx
	sall	$23, %eax
	orl	%edx, %eax
	movl	%r12d, %edx
	andl	$4095, %edx
	orl	%edx, %eax
	jmp	.L1810
.L1985:
	movzbl	994(%rbx), %edx
	movzbl	1144(%rbx), %edi
.L1843:
	andb	$6, %dl
	jne	.L1844
	movl	%edi, %r8d
	shrb	%r8b
	andb	$1, %r8b
	jne	.L2006
.L1845:
	testb	%r10b, %r10b
	je	.L1847
	movl	%r9d, %edx
	andl	$-16, %edx
	cmpb	%dl, %r10b
	jne	.L1844
.L1847:
	testb	%r8b, %r8b
	jne	.L2007
.L1849:
	testb	$2, %r15b
	je	.L1852
	orl	$6, %r9d
	movb	%r9b, (%rcx)
.L1852:
	movq	984(%rbx), %rdx
	leaq	(%rbx,%rbp,8), %rcx
	movq	%rdx, 35000(%rcx)
	movzbl	(%rdx), %edx
	andl	$-16, %edx
	cmpl	$4095, %r12d
	movb	%dl, 43192(%rbx,%rbp)
	ja	.L1853
	testb	$1, 994(%rbx)
	movl	$4, %edx
	je	.L1854
.L1853:
	movl	%r15d, %edx
	orl	$5, %edx
.L1854:
	movb	%dl, 46264(%rbx,%rbp)
	movq	1024(%rbx), %rdx
	movl	%r12d, %edi
	andl	$16775168, %edi
	addq	%rdx, %rsi
	xorq	%rdi, %rsi
	movq	%rsi, 26808(%rcx)
	testb	$4, 808(%rbx)
	je	.L1855
	testb	$32, 54(%rbx)
	je	.L1855
	cmpl	$-2, %r11d
	movb	$4, 46264(%rbx,%rbp)
	je	.L1855
	movl	416(%rbx), %ecx
	movl	408(%rbx), %esi
	andl	$16777215, %ecx
	andl	$16777215, %esi
	cmpl	%esi, %ecx
	jb	.L1856
	cmpl	%esi, %r12d
	jb	.L1857
	cmpl	%ecx, %r12d
	movl	$1, %edi
	jbe	.L1861
.L1857:
	movq	(%rsp), %r9
	movl	%r12d, %edi
	leaq	-1(%r9,%rdi), %r8
	movl	%esi, %edi
	cmpq	%rdi, %r8
	jb	.L1859
	movl	%ecx, %r9d
	movl	$1, %edi
	cmpq	%r9, %r8
	jbe	.L1861
.L1859:
	xorl	%edi, %edi
	cmpl	%esi, %r12d
	ja	.L1861
	xorl	%edi, %edi
	cmpq	%rcx, %r8
	setae	%dil
.L1861:
	andl	$1, %edi
	testb	%dil, %dil
	je	.L1855
	orl	$2097152, 56(%rbx)
	jmp	.L1855
.L1801:
	movl	%eax, %edi
	xorl	88(%rbx), %edi
	movq	%rdi, 32(%rsp)
	jmp	.L1802
.L1999:
	movq	%r12, %rax
	shrq	$11, %rax
	andl	$30, %eax
	jmp	.L1798
.L1820:
	orl	$1, %r12d
	movl	%r12d, 792(%rbx)
	jmp	.L1818
.L2002:
	shrq	$11, %rax
	andl	$510, %eax
	jmp	.L1796
.L1838:
	movl	%ecx, %esi
	xorl	88(%rdx), %esi
	jmp	.L1839
.L1836:
	movl	%ecx, %eax
	xorl	88(%rdx), %eax
	jmp	.L1837
.L2004:
	testb	$8, %dil
	je	.L1807
.L1806:
	movq	32(%rsp), %rax
	testl	$512, %r15d
	movw	$17, 992(%rbx)
	movq	%rax, 944(%rbx)
	je	.L1983
	jmp	.L1768
.L1833:
	movl	%r14d, 18616(%rbx,%rbp,8)
	jmp	.L1834
.L2005:
	testb	$4, %dil
	jne	.L1806
	testb	$2, %dil
	jne	.L1780
	.p2align 4,,3
	jmp	.L1807
.L2003:
	testb	$4, %al
	movq	32(%rsp), %rdx
	jne	.L1804
	movl	32(%rsp), %edi
	movl	$1, %r9d
	xorl	%r8d, %r8d
	movl	$4, %ecx
	movl	$-3, %esi
	movl	%r10d, 44(%rsp)
	movq	1056(%rbx), %rdx
	movl	%r11d, 40(%rsp)
	addl	1096(%rbx), %edi
	call	s390_logical_to_main_l
	movq	1056(%rbx), %rax
	movl	44(%rsp), %r10d
	movl	40(%rsp), %r11d
	movq	952(%rax), %rdx
.L1804:
	movq	%rdx, %rax
	shrq	$11, %rax
	addq	1032(%rbx), %rax
	orb	$4, (%rax)
	movq	1024(%rbx), %rax
	movzwl	(%rax,%rdx), %edi
	jmp	.L1870
.L2007:
	movq	1056(%rbx), %rdx
	testb	$6, 994(%rdx)
	je	.L1849
	movq	%rdx, %rax
.L1850:
	movl	$4, %esi
	movq	%rax, %rdi
	call	*2032(%rax)
	movzwl	992(%rbx), %esi
	jmp	.L1864
.L2006:
	movq	1056(%rbx), %rdx
	testb	$6, 994(%rdx)
	je	.L1845
	jmp	.L1846
.L1997:
	testb	$4, %al
	jne	.L1792
	movl	8(%rsp), %edi
	movl	$1, %r9d
	xorl	%r8d, %r8d
	movl	$4, %ecx
	movl	$-3, %esi
	movl	%r10d, 32(%rsp)
	movq	1056(%rbx), %rdx
	movl	%r11d, 28(%rsp)
	addl	1096(%rbx), %edi
	call	s390_logical_to_main_l
	movq	1056(%rbx), %rax
	movl	28(%rsp), %r11d
	movl	32(%rsp), %r10d
	movq	952(%rax), %rdx
	jmp	.L1792
.L1972:
	movl	%r13d, %esi
	xorl	$1, %esi
	movslq	%esi, %rsi
	leaq	(%rbx,%rsi,8), %rcx
	movl	%edi, 18616(%rcx)
	movzbl	8(%rsp), %edi
	movl	%r9d, 2232(%rcx)
	movl	%r8d, 10424(%rcx)
	movb	%al, 45240(%rbx,%rsi)
	movb	%dil, 44216(%rbx,%rsi)
	movb	$0, 46264(%rbx,%rsi)
	movq	$0, 26808(%rcx)
	jmp	.L1982
.L1856:
	movq	(%rsp), %r9
	movl	%r12d, %edi
	leaq	-1(%r9,%rdi), %r8
	movl	$1, %edi
	cmpq	%rsi, %r8
	jae	.L1861
	xorl	%edi, %edi
	cmpl	%ecx, %r12d
	setbe	%dil
	jmp	.L1861
.L1996:
	movq	1056(%rbx), %rax
	testb	$6, 994(%rax)
	je	.L1851
	jmp	.L1850
	.cfi_endproc
.LFE148:
	.size	s370_logical_to_main_l, .-s370_logical_to_main_l
	.section	.text.unlikely
	.type	s370_vfetch2_full, @function
s370_vfetch2_full:
.LFB160:
	.cfi_startproc
	pushq	%r14
	.cfi_def_cfa_offset 16
	.cfi_offset 14, -16
	leal	5(%rsi), %eax
	pushq	%r13
	.cfi_def_cfa_offset 24
	.cfi_offset 13, -24
	cltq
	movl	%esi, %r13d
	pushq	%r12
	.cfi_def_cfa_offset 32
	.cfi_offset 12, -32
	leaq	(%rdx,%rax,4), %r14
	pushq	%rbp
	.cfi_def_cfa_offset 40
	.cfi_offset 6, -40
	movl	%edi, %ebp
	pushq	%rbx
	.cfi_def_cfa_offset 48
	.cfi_offset 3, -48
	movq	%rdx, %rbx
	movl	1892(%r14), %eax
	testl	%eax, %eax
	je	.L2009
	movl	%edi, %ecx
	incl	%eax
	shrl	$11, %ecx
	cltq
	andl	$1023, %ecx
	leaq	(%rdx,%rcx,8), %rdx
	movl	2232(%rdx), %edi
	cmpl	%edi, 320(%rbx,%rax,8)
	je	.L2010
	movb	1976(%rbx,%rax), %al
	testb	%al, 44216(%rbx,%rcx)
	je	.L2009
.L2010:
	movb	97(%rbx), %al
	testb	%al, %al
	je	.L2011
	cmpb	43192(%rbx,%rcx), %al
	jne	.L2009
.L2011:
	movl	%ebp, %eax
	andl	$14680064, %eax
	orl	2224(%rbx), %eax
	cmpl	10424(%rdx), %eax
	jne	.L2009
	testb	$4, 46264(%rbx,%rcx)
	je	.L2009
	movl	%ebp, %eax
	xorq	26808(%rdx), %rax
	jmp	.L2012
.L2009:
	movzbl	97(%rbx), %r8d
	movl	$1, %r9d
	movl	$4, %ecx
	movq	%rbx, %rdx
	movl	%r13d, %esi
	movl	%ebp, %edi
	call	s370_logical_to_main_l
.L2012:
	movzbl	(%rax), %r12d
	leal	1(%rbp), %ecx
	movl	1892(%r14), %eax
	sall	$8, %r12d
	testl	%eax, %eax
	je	.L2013
	movl	%ecx, %edi
	incl	%eax
	andl	$16777215, %edi
	cltq
	movl	%edi, %esi
	shrl	$11, %esi
	andl	$1023, %esi
	leaq	(%rbx,%rsi,8), %rdx
	movl	2232(%rdx), %r10d
	cmpl	%r10d, 320(%rbx,%rax,8)
	je	.L2014
	movb	1976(%rbx,%rax), %al
	testb	%al, 44216(%rbx,%rsi)
	je	.L2013
.L2014:
	movb	97(%rbx), %al
	testb	%al, %al
	je	.L2015
	cmpb	43192(%rbx,%rsi), %al
	jne	.L2013
.L2015:
	movl	%ecx, %eax
	andl	$14680064, %eax
	orl	2224(%rbx), %eax
	cmpl	10424(%rdx), %eax
	jne	.L2013
	testb	$4, 46264(%rbx,%rsi)
	je	.L2013
	movl	%edi, %eax
	xorq	26808(%rdx), %rax
	jmp	.L2016
.L2013:
	movzbl	97(%rbx), %r8d
	movl	%ecx, %edi
	movl	$1, %r9d
	andl	$16777215, %edi
	movl	$4, %ecx
	movq	%rbx, %rdx
	movl	%r13d, %esi
	call	s370_logical_to_main_l
.L2016:
	popq	%rbx
	.cfi_def_cfa_offset 40
	movzbl	(%rax), %eax
	popq	%rbp
	.cfi_def_cfa_offset 32
	orl	%r12d, %eax
	popq	%r12
	.cfi_def_cfa_offset 24
	popq	%r13
	.cfi_def_cfa_offset 16
	popq	%r14
	.cfi_def_cfa_offset 8
	ret
	.cfi_endproc
.LFE160:
	.size	s370_vfetch2_full, .-s370_vfetch2_full
	.type	s370_validate_operand.part.11, @function
s370_validate_operand.part.11:
.LFB3145:
	.cfi_startproc
	movq	%r8, %rax
	movzbl	97(%r8), %r8d
	addl	%edx, %edi
	andl	$16777215, %edi
	movl	$1, %r9d
	movq	%rax, %rdx
	jmp	s370_logical_to_main_l
	.cfi_endproc
.LFE3145:
	.size	s370_validate_operand.part.11, .-s370_validate_operand.part.11
	.type	s370_vfetch4_full, @function
s370_vfetch4_full:
.LFB162:
	.cfi_startproc
	pushq	%r14
	.cfi_def_cfa_offset 16
	.cfi_offset 14, -16
	leal	5(%rsi), %eax
	pushq	%r13
	.cfi_def_cfa_offset 24
	.cfi_offset 13, -24
	cltq
	movl	%esi, %r13d
	pushq	%r12
	.cfi_def_cfa_offset 32
	.cfi_offset 12, -32
	leaq	(%rdx,%rax,4), %r14
	pushq	%rbp
	.cfi_def_cfa_offset 40
	.cfi_offset 6, -40
	movl	%edi, %ebp
	pushq	%rbx
	.cfi_def_cfa_offset 48
	.cfi_offset 3, -48
	movq	%rdx, %rbx
	subq	$16, %rsp
	.cfi_def_cfa_offset 64
	movl	1892(%r14), %eax
	testl	%eax, %eax
	je	.L2044
	movl	%edi, %ecx
	incl	%eax
	shrl	$11, %ecx
	cltq
	andl	$1023, %ecx
	leaq	(%rdx,%rcx,8), %rdx
	movl	2232(%rdx), %edi
	cmpl	%edi, 320(%rbx,%rax,8)
	je	.L2045
	movb	1976(%rbx,%rax), %al
	testb	%al, 44216(%rbx,%rcx)
	je	.L2044
.L2045:
	movb	97(%rbx), %al
	testb	%al, %al
	je	.L2046
	cmpb	43192(%rbx,%rcx), %al
	jne	.L2044
.L2046:
	movl	%ebp, %eax
	andl	$14680064, %eax
	orl	2224(%rbx), %eax
	cmpl	10424(%rdx), %eax
	jne	.L2044
	testb	$4, 46264(%rbx,%rcx)
	je	.L2044
	movl	%ebp, %eax
	xorq	26808(%rdx), %rax
	jmp	.L2047
.L2044:
	movzbl	97(%rbx), %r8d
	movl	$1, %r9d
	movl	$4, %ecx
	movq	%rbx, %rdx
	movl	%r13d, %esi
	movl	%ebp, %edi
	call	s370_logical_to_main_l
.L2047:
	movl	(%rax), %eax
	movl	$2048, %r12d
	movl	%eax, (%rsp)
	movl	%ebp, %eax
	andl	$2047, %eax
	subl	%eax, %r12d
	movl	1892(%r14), %eax
	leal	(%r12,%rbp), %ecx
	testl	%eax, %eax
	je	.L2048
	movl	%ecx, %edi
	incl	%eax
	andl	$16777215, %edi
	cltq
	movl	%edi, %esi
	shrl	$11, %esi
	andl	$1023, %esi
	leaq	(%rbx,%rsi,8), %rdx
	movl	2232(%rdx), %r10d
	cmpl	%r10d, 320(%rbx,%rax,8)
	je	.L2049
	movb	44216(%rbx,%rsi), %r8b
	testb	%r8b, 1976(%rbx,%rax)
	je	.L2048
.L2049:
	movb	97(%rbx), %al
	testb	%al, %al
	je	.L2050
	cmpb	43192(%rbx,%rsi), %al
	jne	.L2048
.L2050:
	movl	%ecx, %eax
	andl	$14680064, %eax
	orl	2224(%rbx), %eax
	cmpl	10424(%rdx), %eax
	jne	.L2048
	testb	$4, 46264(%rbx,%rsi)
	je	.L2048
	movl	%edi, %eax
	xorq	26808(%rdx), %rax
	jmp	.L2051
.L2048:
	movzbl	97(%rbx), %r8d
	movl	%ecx, %edi
	movl	$1, %r9d
	andl	$16777215, %edi
	movl	$4, %ecx
	movq	%rbx, %rdx
	movl	%r13d, %esi
	call	s370_logical_to_main_l
.L2051:
	movl	(%rax), %eax
	movl	%eax, (%rsp,%r12)
	movl	(%rsp), %eax
	addq	$16, %rsp
	.cfi_def_cfa_offset 48
	popq	%rbx
	.cfi_def_cfa_offset 40
	bswap	%eax
	popq	%rbp
	.cfi_def_cfa_offset 32
	popq	%r12
	.cfi_def_cfa_offset 24
	popq	%r13
	.cfi_def_cfa_offset 16
	popq	%r14
	.cfi_def_cfa_offset 8
	ret
	.cfi_endproc
.LFE162:
	.size	s370_vfetch4_full, .-s370_vfetch4_full
	.type	s370_vstore4_full, @function
s370_vstore4_full:
.LFB154:
	.cfi_startproc
	pushq	%r15
	.cfi_def_cfa_offset 16
	.cfi_offset 15, -16
	movl	%esi, %eax
	movl	%edi, %r11d
	pushq	%r14
	.cfi_def_cfa_offset 24
	.cfi_offset 14, -24
	andl	$2047, %eax
	movl	%edx, %r10d
	pushq	%r13
	.cfi_def_cfa_offset 32
	.cfi_offset 13, -32
	pushq	%r12
	.cfi_def_cfa_offset 40
	.cfi_offset 12, -40
	movl	%esi, %r12d
	pushq	%rbp
	.cfi_def_cfa_offset 48
	.cfi_offset 6, -48
	movl	$2048, %ebp
	subl	%eax, %ebp
	pushq	%rbx
	.cfi_def_cfa_offset 56
	.cfi_offset 3, -56
	movq	%rcx, %rbx
	leal	5(%rdx), %eax
	subq	$40, %rsp
	.cfi_def_cfa_offset 96
	movl	%ebp, %edi
	cltq
	movq	%rdi, (%rsp)
	leaq	(%rcx,%rax,4), %r15
	movl	1892(%r15), %eax
	testl	%eax, %eax
	je	.L2078
	leal	1(%rax), %edx
	movl	%esi, %ecx
	shrl	$11, %ecx
	movslq	%edx, %rdx
	andl	$1023, %ecx
	leaq	(%rbx,%rcx,8), %rax
	movl	2232(%rax), %esi
	cmpl	%esi, 320(%rbx,%rdx,8)
	je	.L2079
	movb	44216(%rbx,%rcx), %sil
	testb	%sil, 1976(%rbx,%rdx)
	je	.L2078
.L2079:
	movb	97(%rbx), %dl
	testb	%dl, %dl
	je	.L2080
	cmpb	43192(%rbx,%rcx), %dl
	jne	.L2078
.L2080:
	movl	%r12d, %edx
	andl	$14680064, %edx
	orl	2224(%rbx), %edx
	cmpl	10424(%rax), %edx
	jne	.L2078
	testb	$1, 46264(%rbx,%rcx)
	je	.L2078
	movq	35000(%rax), %rdx
	movl	%r12d, %r13d
	movq	%rdx, 984(%rbx)
	xorq	26808(%rax), %r13
	jmp	.L2081
.L2078:
	movq	(%rsp), %r9
	movl	%r10d, %esi
	movl	$1, %ecx
	movzbl	97(%rbx), %r8d
	movq	%rbx, %rdx
	movl	%r12d, %edi
	movl	%r11d, 12(%rsp)
	movl	%r10d, 8(%rsp)
	call	s370_logical_to_main_l
	movl	12(%rsp), %r11d
	movl	8(%rsp), %r10d
	movq	%rax, %r13
.L2081:
	movl	1892(%r15), %eax
	leal	0(%rbp,%r12), %esi
	movq	984(%rbx), %r14
	testl	%eax, %eax
	je	.L2082
	movl	%esi, %r8d
	incl	%eax
	andl	$16777215, %r8d
	cltq
	movl	%r8d, %edx
	shrl	$11, %edx
	andl	$1023, %edx
	movl	%edx, %edi
	leaq	(%rbx,%rdi,8), %rcx
	movl	2232(%rcx), %r9d
	cmpl	%r9d, 320(%rbx,%rax,8)
	je	.L2083
	movb	44216(%rbx,%rdi), %r9b
	testb	%r9b, 1976(%rbx,%rax)
	je	.L2082
.L2083:
	movb	97(%rbx), %al
	testb	%al, %al
	je	.L2084
	cmpb	43192(%rbx,%rdx), %al
	jne	.L2082
.L2084:
	movl	%esi, %edx
	andl	$14680064, %edx
	orl	2224(%rbx), %edx
	cmpl	10424(%rcx), %edx
	jne	.L2082
	testb	$2, 46264(%rbx,%rdi)
	je	.L2082
	movl	%r8d, %eax
	xorq	26808(%rcx), %rax
	jmp	.L2085
.L2082:
	movzbl	97(%rbx), %r8d
	movl	$4, %r9d
	movl	%esi, %edi
	subl	%ebp, %r9d
	andl	$16777215, %edi
	movl	$2, %ecx
	movslq	%r9d, %r9
	movq	%rbx, %rdx
	movl	%r10d, %esi
	movl	%r11d, 8(%rsp)
	call	s370_logical_to_main_l
	movl	8(%rsp), %r11d
.L2085:
	movq	(%rsp), %rcx
	leaq	16(%rsp), %rsi
	movq	%r13, %rdi
	bswap	%r11d
	orb	$6, (%r14)
	movl	%r11d, 16(%rsp)
	rep movsb
	movq	%rax, %rdi
	movb	$4, %cl
	subl	%ebp, %ecx
	movslq	%ecx, %rcx
	rep movsb
	addq	$40, %rsp
	.cfi_def_cfa_offset 56
	popq	%rbx
	.cfi_def_cfa_offset 48
	popq	%rbp
	.cfi_def_cfa_offset 40
	popq	%r12
	.cfi_def_cfa_offset 32
	popq	%r13
	.cfi_def_cfa_offset 24
	popq	%r14
	.cfi_def_cfa_offset 16
	popq	%r15
	.cfi_def_cfa_offset 8
	ret
	.cfi_endproc
.LFE154:
	.size	s370_vstore4_full, .-s370_vstore4_full
	.type	s370_instfetch.constprop.20, @function
s370_instfetch.constprop.20:
.LFB3153:
	.cfi_startproc
	pushq	%r14
	.cfi_def_cfa_offset 16
	.cfi_offset 14, -16
	pushq	%r13
	.cfi_def_cfa_offset 24
	.cfi_offset 13, -24
	pushq	%r12
	.cfi_def_cfa_offset 32
	.cfi_offset 12, -32
	pushq	%rbp
	.cfi_def_cfa_offset 40
	.cfi_offset 6, -40
	pushq	%rbx
	.cfi_def_cfa_offset 48
	.cfi_offset 3, -48
	movq	%rdi, %rbx
	movl	800(%rdi), %ebp
	movl	%ebp, %r12d
	andl	$2047, %r12d
	testb	$1, %bpl
	je	.L2112
	movl	$6, %esi
	call	*2032(%rbx)
.L2112:
	testb	$4, 808(%rbx)
	je	.L2114
	movw	$0, 1146(%rbx)
	testb	$64, 54(%rbx)
	je	.L2114
	movl	416(%rbx), %eax
	movl	408(%rbx), %edx
	andl	$16777215, %eax
	andl	$16777215, %edx
	cmpl	%edx, %eax
	jb	.L2116
	xorl	%ecx, %ecx
	cmpl	%edx, %ebp
	jb	.L2119
	jmp	.L2168
.L2116:
	cmpl	%edx, %ebp
	movl	$1, %ecx
	jae	.L2119
.L2168:
	xorl	%ecx, %ecx
	cmpl	%eax, %ebp
	setbe	%cl
.L2119:
	movb	%cl, %al
	andl	$1, %eax
	testb	%al, %al
	je	.L2114
	orl	$4194304, 56(%rbx)
.L2114:
	movl	1908(%rbx), %eax
	testl	%eax, %eax
	je	.L2120
	movl	%ebp, %ecx
	incl	%eax
	shrl	$11, %ecx
	cltq
	andl	$1023, %ecx
	leaq	(%rbx,%rcx,8), %rdx
	movl	2232(%rdx), %edi
	cmpl	%edi, 320(%rbx,%rax,8)
	je	.L2121
	movb	44216(%rbx,%rcx), %sil
	testb	%sil, 1976(%rbx,%rax)
	je	.L2120
.L2121:
	movb	97(%rbx), %al
	testb	%al, %al
	je	.L2122
	cmpb	43192(%rbx,%rcx), %al
	jne	.L2120
.L2122:
	movl	%ebp, %eax
	andl	$14680064, %eax
	orl	2224(%rbx), %eax
	cmpl	10424(%rdx), %eax
	jne	.L2120
	testb	$4, 46264(%rbx,%rcx)
	je	.L2120
	movl	%ebp, %eax
	xorq	26808(%rdx), %rax
	jmp	.L2123
.L2120:
	movzbl	97(%rbx), %r8d
	movl	$1, %r9d
	movl	$4, %ecx
	movq	%rbx, %rdx
	orl	$-1, %esi
	movl	%ebp, %edi
	call	s370_logical_to_main_l
.L2123:
	movb	(%rax), %cl
	movl	$2, %edx
	cmpb	$63, %cl
	jbe	.L2124
	cmpb	$-64, %cl
	sbbl	%edx, %edx
	andl	$-2, %edx
	addl	$6, %edx
.L2124:
	addl	%r12d, %edx
	cmpl	$2048, %edx
	jle	.L2125
	movl	(%rax), %eax
	leaq	1014(%rbx), %r13
	movl	$2048, %r14d
	movl	1908(%rbx), %esi
	subl	%r12d, %r14d
	addl	%r14d, %ebp
	movl	%ebp, %edi
	andl	$16777215, %edi
	movl	%eax, 1014(%rbx)
	testl	%esi, %esi
	je	.L2126
	movl	%edi, %ecx
	incl	%esi
	shrl	$11, %ecx
	movslq	%esi, %rsi
	andl	$1023, %ecx
	leaq	(%rbx,%rcx,8), %rdx
	movl	2232(%rdx), %eax
	cmpl	%eax, 320(%rbx,%rsi,8)
	je	.L2127
	movb	44216(%rbx,%rcx), %al
	testb	%al, 1976(%rbx,%rsi)
	je	.L2126
.L2127:
	movb	97(%rbx), %sil
	testb	%sil, %sil
	je	.L2128
	cmpb	43192(%rbx,%rcx), %sil
	jne	.L2126
.L2128:
	andl	$14680064, %ebp
	orl	2224(%rbx), %ebp
	cmpl	10424(%rdx), %ebp
	jne	.L2126
	testb	$4, 46264(%rbx,%rcx)
	je	.L2126
	movl	%edi, %eax
	xorq	26808(%rdx), %rax
	jmp	.L2129
.L2126:
	movzbl	97(%rbx), %r8d
	movl	$1, %r9d
	movl	$4, %ecx
	movq	%rbx, %rdx
	orl	$-1, %esi
	call	s370_logical_to_main_l
.L2129:
	movl	(%rax), %eax
	movslq	%r14d, %r14
	movl	%eax, 0(%r13,%r14)
	movq	%r13, %rax
.L2125:
	popq	%rbx
	.cfi_def_cfa_offset 40
	popq	%rbp
	.cfi_def_cfa_offset 32
	popq	%r12
	.cfi_def_cfa_offset 24
	popq	%r13
	.cfi_def_cfa_offset 16
	popq	%r14
	.cfi_def_cfa_offset 8
	ret
	.cfi_endproc
.LFE3153:
	.size	s370_instfetch.constprop.20, .-s370_instfetch.constprop.20
	.text
	.p2align 4,,15
	.globl	s370_add_register
	.type	s370_add_register, @function
s370_add_register:
.LFB170:
	.cfi_startproc
	movzbl	1(%rdi), %ecx
	movb	$2, 130(%rsi)
	movq	%rsi, %rax
	addq	$2, 136(%rsi)
	movq	%rcx, %rdx
	andl	$15, %ecx
	shrq	%rdx
	andl	$120, %edx
	addq	%rsi, %rdx
	movl	192(%rsi,%rcx,8), %esi
	movl	192(%rdx), %edi
	leal	(%rdi,%rsi), %ecx
	cmpl	$0, %ecx
	movl	%ecx, 192(%rdx)
	jle	.L2170
	shrl	$31, %esi
	testb	%sil, %sil
	jne	.L2182
.L2179:
	movl	$2, %edx
.L2173:
	movb	%dl, 100(%rax)
.L2169:
	rep ret
	.p2align 4,,10
	.p2align 3
.L2182:
	shrl	$31, %edi
	testb	%dil, %dil
	je	.L2179
.L2171:
	testb	$8, 101(%rax)
	movb	$3, 100(%rax)
	je	.L2169
	movq	2032(%rax), %rdx
	movl	$8, %esi
	movq	%rax, %rdi
	jmp	*%rdx
	.p2align 4,,10
	.p2align 3
.L2170:
	jne	.L2183
	shrl	$31, %esi
	testb	%sil, %sil
	je	.L2181
	shrl	$31, %edi
	testb	%dil, %dil
	jne	.L2171
.L2181:
	xorl	%edx, %edx
	jmp	.L2173
	.p2align 4,,10
	.p2align 3
.L2183:
	testl	%esi, %esi
	js	.L2180
	testl	%edi, %edi
	.p2align 4,,5
	jns	.L2171
.L2180:
	movl	$1, %edx
	.p2align 4,,2
	jmp	.L2173
	.cfi_endproc
.LFE170:
	.size	s370_add_register, .-s370_add_register
	.p2align 4,,15
	.globl	s370_add
	.type	s370_add, @function
s370_add:
.LFB171:
	.cfi_startproc
	pushq	%r14
	.cfi_def_cfa_offset 16
	.cfi_offset 14, -16
	pushq	%r13
	.cfi_def_cfa_offset 24
	.cfi_offset 13, -24
	pushq	%r12
	.cfi_def_cfa_offset 32
	.cfi_offset 12, -32
	pushq	%rbp
	.cfi_def_cfa_offset 40
	.cfi_offset 6, -40
	pushq	%rbx
	.cfi_def_cfa_offset 48
	.cfi_offset 3, -48
	movq	%rsi, %rbx
	movl	(%rdi), %eax
	bswap	%eax
	movl	%eax, %r12d
	movl	%eax, %edx
	shrl	$20, %r12d
	shrl	$16, %edx
	movl	%eax, %ebp
	andl	$15, %r12d
	andl	$4095, %ebp
	andl	$15, %edx
	jne	.L2229
.L2185:
	shrl	$12, %eax
	andl	$15, %eax
	movl	%eax, %r14d
	je	.L2186
	movslq	%eax, %rdx
	addl	192(%rbx,%rdx,8), %ebp
.L2186:
	movl	%ebp, %r13d
	movb	$4, 130(%rbx)
	addq	$4, 136(%rbx)
	andl	$16777215, %r13d
	testb	$3, %bpl
	jne	.L2230
.L2187:
	leal	-77(%r13), %edx
	cmpl	$6, %edx
	jbe	.L2231
.L2189:
	leal	5(%r14), %edx
	movslq	%edx, %rdx
	movl	1892(%rbx,%rdx,4), %edx
	testl	%edx, %edx
	je	.L2190
	leal	1(%rdx), %esi
	movl	%r13d, %ecx
	shrl	$11, %ecx
	movslq	%esi, %rsi
	andl	$1023, %ecx
	leaq	(%rbx,%rcx,8), %rdx
	movl	2232(%rdx), %eax
	cmpl	%eax, 320(%rbx,%rsi,8)
	jne	.L2232
.L2191:
	movzbl	97(%rbx), %esi
	testb	%sil, %sil
	jne	.L2233
.L2192:
	andl	$14680064, %ebp
	orl	2224(%rbx), %ebp
	cmpl	10424(%rdx), %ebp
	jne	.L2190
	testb	$4, 46264(%rbx,%rcx)
	je	.L2190
	movl	%r13d, %eax
	xorq	26808(%rdx), %rax
.L2193:
	movl	(%rax), %eax
	bswap	%eax
.L2194:
	movslq	%r12d, %r12
	leaq	(%rbx,%r12,8), %rcx
	movl	192(%rcx), %esi
	leal	(%rsi,%rax), %edx
	cmpl	$0, %edx
	movl	%edx, 192(%rcx)
	jle	.L2195
	shrl	$31, %eax
	testb	%al, %al
	jne	.L2234
.L2204:
	movl	$2, %eax
.L2198:
	movb	%al, 100(%rbx)
.L2184:
	popq	%rbx
	.cfi_remember_state
	.cfi_def_cfa_offset 40
	popq	%rbp
	.cfi_def_cfa_offset 32
	popq	%r12
	.cfi_def_cfa_offset 24
	popq	%r13
	.cfi_def_cfa_offset 16
	popq	%r14
	.cfi_def_cfa_offset 8
	ret
	.p2align 4,,10
	.p2align 3
.L2234:
	.cfi_restore_state
	shrl	$31, %esi
	testb	%sil, %sil
	je	.L2204
.L2196:
	testb	$8, 101(%rbx)
	movb	$3, 100(%rbx)
	je	.L2184
	movq	2032(%rbx), %rax
	movq	%rbx, %rdi
	movl	$8, %esi
	popq	%rbx
	.cfi_remember_state
	.cfi_def_cfa_offset 40
	popq	%rbp
	.cfi_def_cfa_offset 32
	popq	%r12
	.cfi_def_cfa_offset 24
	popq	%r13
	.cfi_def_cfa_offset 16
	popq	%r14
	.cfi_def_cfa_offset 8
	jmp	*%rax
	.p2align 4,,10
	.p2align 3
.L2195:
	.cfi_restore_state
	jne	.L2235
	shrl	$31, %eax
	testb	%al, %al
	je	.L2206
	shrl	$31, %esi
	testb	%sil, %sil
	jne	.L2196
.L2206:
	xorl	%eax, %eax
	jmp	.L2198
	.p2align 4,,10
	.p2align 3
.L2235:
	testl	%eax, %eax
	js	.L2205
	testl	%esi, %esi
	.p2align 4,,5
	jns	.L2196
.L2205:
	movl	$1, %eax
	.p2align 4,,2
	jmp	.L2198
.L2232:
	movzbl	44216(%rbx,%rcx), %edi
	testb	%dil, 1976(%rbx,%rsi)
	jne	.L2191
.L2190:
	movzbl	97(%rbx), %r8d
	movl	$1, %r9d
	movl	$4, %ecx
	movq	%rbx, %rdx
	movl	%r14d, %esi
	movl	%r13d, %edi
	call	s370_logical_to_main_l
	jmp	.L2193
.L2230:
	movl	%ebp, %edx
	andl	$2047, %edx
	cmpl	$2044, %edx
	jbe	.L2187
	movq	%rbx, %rdx
	movl	%r14d, %esi
	movl	%r13d, %edi
	call	s370_vfetch4_full
	jmp	.L2194
.L2229:
	movslq	%edx, %rdx
	addl	192(%rsi,%rdx,8), %ebp
	jmp	.L2185
.L2233:
	cmpb	43192(%rbx,%rcx), %sil
	je	.L2192
	jmp	.L2190
.L2231:
	movq	%rbx, %rdi
	call	s370_store_int_timer
	.p2align 4,,5
	jmp	.L2189
	.cfi_endproc
.LFE171:
	.size	s370_add, .-s370_add
	.p2align 4,,15
	.globl	s370_add_halfword
	.type	s370_add_halfword, @function
s370_add_halfword:
.LFB172:
	.cfi_startproc
	pushq	%r14
	.cfi_def_cfa_offset 16
	.cfi_offset 14, -16
	pushq	%r13
	.cfi_def_cfa_offset 24
	.cfi_offset 13, -24
	pushq	%r12
	.cfi_def_cfa_offset 32
	.cfi_offset 12, -32
	pushq	%rbp
	.cfi_def_cfa_offset 40
	.cfi_offset 6, -40
	pushq	%rbx
	.cfi_def_cfa_offset 48
	.cfi_offset 3, -48
	movq	%rsi, %rbx
	movl	(%rdi), %eax
	bswap	%eax
	movl	%eax, %r12d
	movl	%eax, %edx
	shrl	$20, %r12d
	shrl	$16, %edx
	movl	%eax, %ebp
	andl	$15, %r12d
	andl	$4095, %ebp
	andl	$15, %edx
	jne	.L2281
.L2237:
	shrl	$12, %eax
	andl	$15, %eax
	movl	%eax, %r14d
	je	.L2238
	movslq	%eax, %rdx
	addl	192(%rbx,%rdx,8), %ebp
.L2238:
	movl	%ebp, %r13d
	movb	$4, 130(%rbx)
	addq	$4, 136(%rbx)
	andl	$16777215, %r13d
	testb	$1, %bpl
	jne	.L2282
.L2239:
	leal	-79(%r13), %edx
	cmpl	$4, %edx
	jbe	.L2283
.L2241:
	leal	5(%r14), %edx
	movslq	%edx, %rdx
	movl	1892(%rbx,%rdx,4), %edx
	testl	%edx, %edx
	je	.L2242
	leal	1(%rdx), %esi
	movl	%r13d, %ecx
	shrl	$11, %ecx
	movslq	%esi, %rsi
	andl	$1023, %ecx
	leaq	(%rbx,%rcx,8), %rdx
	movl	2232(%rdx), %eax
	cmpl	%eax, 320(%rbx,%rsi,8)
	jne	.L2284
.L2243:
	movzbl	97(%rbx), %esi
	testb	%sil, %sil
	jne	.L2285
.L2244:
	andl	$14680064, %ebp
	orl	2224(%rbx), %ebp
	cmpl	10424(%rdx), %ebp
	jne	.L2242
	testb	$4, 46264(%rbx,%rcx)
	je	.L2242
	movl	%r13d, %eax
	xorq	26808(%rdx), %rax
.L2245:
	movzwl	(%rax), %eax
#APP
# 477 "vstore.h" 1
	rorw $8, %ax
# 0 "" 2
#NO_APP
.L2246:
	movslq	%r12d, %r12
	cwtl
	leaq	(%rbx,%r12,8), %rcx
	movl	192(%rcx), %esi
	leal	(%rsi,%rax), %edx
	cmpl	$0, %edx
	movl	%edx, 192(%rcx)
	jle	.L2247
	shrl	$31, %eax
	testb	%al, %al
	jne	.L2286
.L2256:
	movl	$2, %eax
.L2250:
	movb	%al, 100(%rbx)
.L2236:
	popq	%rbx
	.cfi_remember_state
	.cfi_def_cfa_offset 40
	popq	%rbp
	.cfi_def_cfa_offset 32
	popq	%r12
	.cfi_def_cfa_offset 24
	popq	%r13
	.cfi_def_cfa_offset 16
	popq	%r14
	.cfi_def_cfa_offset 8
	ret
	.p2align 4,,10
	.p2align 3
.L2286:
	.cfi_restore_state
	shrl	$31, %esi
	testb	%sil, %sil
	je	.L2256
.L2248:
	testb	$8, 101(%rbx)
	movb	$3, 100(%rbx)
	je	.L2236
	movq	2032(%rbx), %rax
	movq	%rbx, %rdi
	movl	$8, %esi
	popq	%rbx
	.cfi_remember_state
	.cfi_def_cfa_offset 40
	popq	%rbp
	.cfi_def_cfa_offset 32
	popq	%r12
	.cfi_def_cfa_offset 24
	popq	%r13
	.cfi_def_cfa_offset 16
	popq	%r14
	.cfi_def_cfa_offset 8
	jmp	*%rax
	.p2align 4,,10
	.p2align 3
.L2247:
	.cfi_restore_state
	jne	.L2287
	shrl	$31, %eax
	testb	%al, %al
	je	.L2258
	shrl	$31, %esi
	testb	%sil, %sil
	jne	.L2248
.L2258:
	xorl	%eax, %eax
	jmp	.L2250
	.p2align 4,,10
	.p2align 3
.L2287:
	testl	%eax, %eax
	js	.L2257
	testl	%esi, %esi
	.p2align 4,,5
	jns	.L2248
.L2257:
	movl	$1, %eax
	.p2align 4,,2
	jmp	.L2250
.L2284:
	movzbl	44216(%rbx,%rcx), %edi
	testb	%dil, 1976(%rbx,%rsi)
	jne	.L2243
.L2242:
	movzbl	97(%rbx), %r8d
	movl	$1, %r9d
	movl	$4, %ecx
	movq	%rbx, %rdx
	movl	%r14d, %esi
	movl	%r13d, %edi
	call	s370_logical_to_main_l
	jmp	.L2245
.L2282:
	movl	%ebp, %edx
	andl	$2047, %edx
	cmpl	$2047, %edx
	jne	.L2239
	movq	%rbx, %rdx
	movl	%r14d, %esi
	movl	%r13d, %edi
	call	s370_vfetch2_full
	jmp	.L2246
.L2281:
	movslq	%edx, %rdx
	addl	192(%rsi,%rdx,8), %ebp
	jmp	.L2237
.L2285:
	cmpb	43192(%rbx,%rcx), %sil
	je	.L2244
	jmp	.L2242
.L2283:
	movq	%rbx, %rdi
	call	s370_store_int_timer
	.p2align 4,,5
	jmp	.L2241
	.cfi_endproc
.LFE172:
	.size	s370_add_halfword, .-s370_add_halfword
	.p2align 4,,15
	.globl	s370_add_halfword_immediate
	.type	s370_add_halfword_immediate, @function
s370_add_halfword_immediate:
.LFB173:
	.cfi_startproc
	movl	(%rdi), %edx
	movq	%rsi, %rax
	movb	$4, 130(%rsi)
	addq	$4, 136(%rsi)
	bswap	%edx
	movl	%edx, %ecx
	movswl	%dx, %edx
	shrl	$20, %ecx
	andl	$15, %ecx
	leaq	(%rsi,%rcx,8), %rsi
	movl	192(%rsi), %edi
	leal	(%rdi,%rdx), %ecx
	cmpl	$0, %ecx
	movl	%ecx, 192(%rsi)
	jle	.L2289
	shrl	$31, %edx
	testb	%dl, %dl
	jne	.L2301
.L2298:
	movl	$2, %edx
.L2292:
	movb	%dl, 100(%rax)
.L2288:
	rep ret
	.p2align 4,,10
	.p2align 3
.L2301:
	shrl	$31, %edi
	testb	%dil, %dil
	je	.L2298
.L2290:
	testb	$8, 101(%rax)
	movb	$3, 100(%rax)
	je	.L2288
	movq	2032(%rax), %rdx
	movl	$8, %esi
	movq	%rax, %rdi
	jmp	*%rdx
	.p2align 4,,10
	.p2align 3
.L2289:
	jne	.L2302
	shrl	$31, %edx
	testb	%dl, %dl
	je	.L2300
	shrl	$31, %edi
	testb	%dil, %dil
	jne	.L2290
.L2300:
	xorl	%edx, %edx
	jmp	.L2292
	.p2align 4,,10
	.p2align 3
.L2302:
	testl	%edx, %edx
	js	.L2299
	testl	%edi, %edi
	.p2align 4,,5
	jns	.L2290
.L2299:
	movl	$1, %edx
	.p2align 4,,2
	jmp	.L2292
	.cfi_endproc
.LFE173:
	.size	s370_add_halfword_immediate, .-s370_add_halfword_immediate
	.p2align 4,,15
	.globl	s370_add_logical_register
	.type	s370_add_logical_register, @function
s370_add_logical_register:
.LFB174:
	.cfi_startproc
	movzbl	1(%rdi), %edi
	addq	$2, 136(%rsi)
	movq	%rdi, %rax
	andl	$15, %edi
	shrq	%rax
	andl	$120, %eax
	leaq	(%rsi,%rax), %rcx
	movl	192(%rsi,%rdi,8), %eax
	movl	192(%rcx), %edx
	addl	%edx, %eax
	movl	%eax, 192(%rcx)
	xorl	%ecx, %ecx
	testl	%eax, %eax
	setne	%cl
	cmpl	%edx, %eax
	sbbl	%eax, %eax
	andl	$2, %eax
	orl	%ecx, %eax
	movb	%al, 100(%rsi)
	ret
	.cfi_endproc
.LFE174:
	.size	s370_add_logical_register, .-s370_add_logical_register
	.p2align 4,,15
	.globl	s370_1E00
	.type	s370_1E00, @function
s370_1E00:
.LFB175:
	.cfi_startproc
	movl	192(%rsi), %edx
	xorl	%ecx, %ecx
	addq	$2, 136(%rsi)
	leal	(%rdx,%rdx), %eax
	testl	%eax, %eax
	movl	%eax, 192(%rsi)
	setne	%cl
	cmpl	%edx, %eax
	sbbl	%eax, %eax
	andl	$2, %eax
	orl	%ecx, %eax
	movb	%al, 100(%rsi)
	ret
	.cfi_endproc
.LFE175:
	.size	s370_1E00, .-s370_1E00
	.p2align 4,,15
	.globl	s370_1E01
	.type	s370_1E01, @function
s370_1E01:
.LFB176:
	.cfi_startproc
	movl	192(%rsi), %edx
	xorl	%ecx, %ecx
	movl	200(%rsi), %eax
	addq	$2, 136(%rsi)
	addl	%edx, %eax
	testl	%eax, %eax
	movl	%eax, 192(%rsi)
	setne	%cl
	cmpl	%edx, %eax
	sbbl	%eax, %eax
	andl	$2, %eax
	orl	%ecx, %eax
	movb	%al, 100(%rsi)
	ret
	.cfi_endproc
.LFE176:
	.size	s370_1E01, .-s370_1E01
	.p2align 4,,15
	.globl	s370_1E02
	.type	s370_1E02, @function
s370_1E02:
.LFB177:
	.cfi_startproc
	movl	192(%rsi), %edx
	xorl	%ecx, %ecx
	movl	208(%rsi), %eax
	addq	$2, 136(%rsi)
	addl	%edx, %eax
	testl	%eax, %eax
	movl	%eax, 192(%rsi)
	setne	%cl
	cmpl	%edx, %eax
	sbbl	%eax, %eax
	andl	$2, %eax
	orl	%ecx, %eax
	movb	%al, 100(%rsi)
	ret
	.cfi_endproc
.LFE177:
	.size	s370_1E02, .-s370_1E02
	.p2align 4,,15
	.globl	s370_1E03
	.type	s370_1E03, @function
s370_1E03:
.LFB178:
	.cfi_startproc
	movl	192(%rsi), %edx
	xorl	%ecx, %ecx
	movl	216(%rsi), %eax
	addq	$2, 136(%rsi)
	addl	%edx, %eax
	testl	%eax, %eax
	movl	%eax, 192(%rsi)
	setne	%cl
	cmpl	%edx, %eax
	sbbl	%eax, %eax
	andl	$2, %eax
	orl	%ecx, %eax
	movb	%al, 100(%rsi)
	ret
	.cfi_endproc
.LFE178:
	.size	s370_1E03, .-s370_1E03
	.p2align 4,,15
	.globl	s370_1E04
	.type	s370_1E04, @function
s370_1E04:
.LFB179:
	.cfi_startproc
	movl	192(%rsi), %edx
	xorl	%ecx, %ecx
	movl	224(%rsi), %eax
	addq	$2, 136(%rsi)
	addl	%edx, %eax
	testl	%eax, %eax
	movl	%eax, 192(%rsi)
	setne	%cl
	cmpl	%edx, %eax
	sbbl	%eax, %eax
	andl	$2, %eax
	orl	%ecx, %eax
	movb	%al, 100(%rsi)
	ret
	.cfi_endproc
.LFE179:
	.size	s370_1E04, .-s370_1E04
	.p2align 4,,15
	.globl	s370_1E05
	.type	s370_1E05, @function
s370_1E05:
.LFB180:
	.cfi_startproc
	movl	192(%rsi), %edx
	xorl	%ecx, %ecx
	movl	232(%rsi), %eax
	addq	$2, 136(%rsi)
	addl	%edx, %eax
	testl	%eax, %eax
	movl	%eax, 192(%rsi)
	setne	%cl
	cmpl	%edx, %eax
	sbbl	%eax, %eax
	andl	$2, %eax
	orl	%ecx, %eax
	movb	%al, 100(%rsi)
	ret
	.cfi_endproc
.LFE180:
	.size	s370_1E05, .-s370_1E05
	.p2align 4,,15
	.globl	s370_1E06
	.type	s370_1E06, @function
s370_1E06:
.LFB181:
	.cfi_startproc
	movl	192(%rsi), %edx
	xorl	%ecx, %ecx
	movl	240(%rsi), %eax
	addq	$2, 136(%rsi)
	addl	%edx, %eax
	testl	%eax, %eax
	movl	%eax, 192(%rsi)
	setne	%cl
	cmpl	%edx, %eax
	sbbl	%eax, %eax
	andl	$2, %eax
	orl	%ecx, %eax
	movb	%al, 100(%rsi)
	ret
	.cfi_endproc
.LFE181:
	.size	s370_1E06, .-s370_1E06
	.p2align 4,,15
	.globl	s370_1E07
	.type	s370_1E07, @function
s370_1E07:
.LFB182:
	.cfi_startproc
	movl	192(%rsi), %edx
	xorl	%ecx, %ecx
	movl	248(%rsi), %eax
	addq	$2, 136(%rsi)
	addl	%edx, %eax
	testl	%eax, %eax
	movl	%eax, 192(%rsi)
	setne	%cl
	cmpl	%edx, %eax
	sbbl	%eax, %eax
	andl	$2, %eax
	orl	%ecx, %eax
	movb	%al, 100(%rsi)
	ret
	.cfi_endproc
.LFE182:
	.size	s370_1E07, .-s370_1E07
	.p2align 4,,15
	.globl	s370_1E08
	.type	s370_1E08, @function
s370_1E08:
.LFB183:
	.cfi_startproc
	movl	192(%rsi), %edx
	xorl	%ecx, %ecx
	movl	256(%rsi), %eax
	addq	$2, 136(%rsi)
	addl	%edx, %eax
	testl	%eax, %eax
	movl	%eax, 192(%rsi)
	setne	%cl
	cmpl	%edx, %eax
	sbbl	%eax, %eax
	andl	$2, %eax
	orl	%ecx, %eax
	movb	%al, 100(%rsi)
	ret
	.cfi_endproc
.LFE183:
	.size	s370_1E08, .-s370_1E08
	.p2align 4,,15
	.globl	s370_1E09
	.type	s370_1E09, @function
s370_1E09:
.LFB184:
	.cfi_startproc
	movl	192(%rsi), %edx
	xorl	%ecx, %ecx
	movl	264(%rsi), %eax
	addq	$2, 136(%rsi)
	addl	%edx, %eax
	testl	%eax, %eax
	movl	%eax, 192(%rsi)
	setne	%cl
	cmpl	%edx, %eax
	sbbl	%eax, %eax
	andl	$2, %eax
	orl	%ecx, %eax
	movb	%al, 100(%rsi)
	ret
	.cfi_endproc
.LFE184:
	.size	s370_1E09, .-s370_1E09
	.p2align 4,,15
	.globl	s370_1E0A
	.type	s370_1E0A, @function
s370_1E0A:
.LFB185:
	.cfi_startproc
	movl	192(%rsi), %edx
	xorl	%ecx, %ecx
	movl	272(%rsi), %eax
	addq	$2, 136(%rsi)
	addl	%edx, %eax
	testl	%eax, %eax
	movl	%eax, 192(%rsi)
	setne	%cl
	cmpl	%edx, %eax
	sbbl	%eax, %eax
	andl	$2, %eax
	orl	%ecx, %eax
	movb	%al, 100(%rsi)
	ret
	.cfi_endproc
.LFE185:
	.size	s370_1E0A, .-s370_1E0A
	.p2align 4,,15
	.globl	s370_1E0B
	.type	s370_1E0B, @function
s370_1E0B:
.LFB186:
	.cfi_startproc
	movl	192(%rsi), %edx
	xorl	%ecx, %ecx
	movl	280(%rsi), %eax
	addq	$2, 136(%rsi)
	addl	%edx, %eax
	testl	%eax, %eax
	movl	%eax, 192(%rsi)
	setne	%cl
	cmpl	%edx, %eax
	sbbl	%eax, %eax
	andl	$2, %eax
	orl	%ecx, %eax
	movb	%al, 100(%rsi)
	ret
	.cfi_endproc
.LFE186:
	.size	s370_1E0B, .-s370_1E0B
	.p2align 4,,15
	.globl	s370_1E0C
	.type	s370_1E0C, @function
s370_1E0C:
.LFB187:
	.cfi_startproc
	movl	192(%rsi), %edx
	xorl	%ecx, %ecx
	movl	288(%rsi), %eax
	addq	$2, 136(%rsi)
	addl	%edx, %eax
	testl	%eax, %eax
	movl	%eax, 192(%rsi)
	setne	%cl
	cmpl	%edx, %eax
	sbbl	%eax, %eax
	andl	$2, %eax
	orl	%ecx, %eax
	movb	%al, 100(%rsi)
	ret
	.cfi_endproc
.LFE187:
	.size	s370_1E0C, .-s370_1E0C
	.p2align 4,,15
	.globl	s370_1E0D
	.type	s370_1E0D, @function
s370_1E0D:
.LFB188:
	.cfi_startproc
	movl	192(%rsi), %edx
	xorl	%ecx, %ecx
	movl	296(%rsi), %eax
	addq	$2, 136(%rsi)
	addl	%edx, %eax
	testl	%eax, %eax
	movl	%eax, 192(%rsi)
	setne	%cl
	cmpl	%edx, %eax
	sbbl	%eax, %eax
	andl	$2, %eax
	orl	%ecx, %eax
	movb	%al, 100(%rsi)
	ret
	.cfi_endproc
.LFE188:
	.size	s370_1E0D, .-s370_1E0D
	.p2align 4,,15
	.globl	s370_1E0E
	.type	s370_1E0E, @function
s370_1E0E:
.LFB189:
	.cfi_startproc
	movl	192(%rsi), %edx
	xorl	%ecx, %ecx
	movl	304(%rsi), %eax
	addq	$2, 136(%rsi)
	addl	%edx, %eax
	testl	%eax, %eax
	movl	%eax, 192(%rsi)
	setne	%cl
	cmpl	%edx, %eax
	sbbl	%eax, %eax
	andl	$2, %eax
	orl	%ecx, %eax
	movb	%al, 100(%rsi)
	ret
	.cfi_endproc
.LFE189:
	.size	s370_1E0E, .-s370_1E0E
	.p2align 4,,15
	.globl	s370_1E0F
	.type	s370_1E0F, @function
s370_1E0F:
.LFB190:
	.cfi_startproc
	movl	192(%rsi), %edx
	xorl	%ecx, %ecx
	movl	312(%rsi), %eax
	addq	$2, 136(%rsi)
	addl	%edx, %eax
	testl	%eax, %eax
	movl	%eax, 192(%rsi)
	setne	%cl
	cmpl	%edx, %eax
	sbbl	%eax, %eax
	andl	$2, %eax
	orl	%ecx, %eax
	movb	%al, 100(%rsi)
	ret
	.cfi_endproc
.LFE190:
	.size	s370_1E0F, .-s370_1E0F
	.p2align 4,,15
	.globl	s370_1E10
	.type	s370_1E10, @function
s370_1E10:
.LFB191:
	.cfi_startproc
	movl	200(%rsi), %edx
	xorl	%ecx, %ecx
	movl	192(%rsi), %eax
	addq	$2, 136(%rsi)
	addl	%edx, %eax
	testl	%eax, %eax
	movl	%eax, 200(%rsi)
	setne	%cl
	cmpl	%edx, %eax
	sbbl	%eax, %eax
	andl	$2, %eax
	orl	%ecx, %eax
	movb	%al, 100(%rsi)
	ret
	.cfi_endproc
.LFE191:
	.size	s370_1E10, .-s370_1E10
	.p2align 4,,15
	.globl	s370_1E11
	.type	s370_1E11, @function
s370_1E11:
.LFB192:
	.cfi_startproc
	movl	200(%rsi), %edx
	xorl	%ecx, %ecx
	addq	$2, 136(%rsi)
	leal	(%rdx,%rdx), %eax
	testl	%eax, %eax
	movl	%eax, 200(%rsi)
	setne	%cl
	cmpl	%edx, %eax
	sbbl	%eax, %eax
	andl	$2, %eax
	orl	%ecx, %eax
	movb	%al, 100(%rsi)
	ret
	.cfi_endproc
.LFE192:
	.size	s370_1E11, .-s370_1E11
	.p2align 4,,15
	.globl	s370_1E12
	.type	s370_1E12, @function
s370_1E12:
.LFB193:
	.cfi_startproc
	movl	200(%rsi), %edx
	xorl	%ecx, %ecx
	movl	208(%rsi), %eax
	addq	$2, 136(%rsi)
	addl	%edx, %eax
	testl	%eax, %eax
	movl	%eax, 200(%rsi)
	setne	%cl
	cmpl	%edx, %eax
	sbbl	%eax, %eax
	andl	$2, %eax
	orl	%ecx, %eax
	movb	%al, 100(%rsi)
	ret
	.cfi_endproc
.LFE193:
	.size	s370_1E12, .-s370_1E12
	.p2align 4,,15
	.globl	s370_1E13
	.type	s370_1E13, @function
s370_1E13:
.LFB194:
	.cfi_startproc
	movl	200(%rsi), %edx
	xorl	%ecx, %ecx
	movl	216(%rsi), %eax
	addq	$2, 136(%rsi)
	addl	%edx, %eax
	testl	%eax, %eax
	movl	%eax, 200(%rsi)
	setne	%cl
	cmpl	%edx, %eax
	sbbl	%eax, %eax
	andl	$2, %eax
	orl	%ecx, %eax
	movb	%al, 100(%rsi)
	ret
	.cfi_endproc
.LFE194:
	.size	s370_1E13, .-s370_1E13
	.p2align 4,,15
	.globl	s370_1E14
	.type	s370_1E14, @function
s370_1E14:
.LFB195:
	.cfi_startproc
	movl	200(%rsi), %edx
	xorl	%ecx, %ecx
	movl	224(%rsi), %eax
	addq	$2, 136(%rsi)
	addl	%edx, %eax
	testl	%eax, %eax
	movl	%eax, 200(%rsi)
	setne	%cl
	cmpl	%edx, %eax
	sbbl	%eax, %eax
	andl	$2, %eax
	orl	%ecx, %eax
	movb	%al, 100(%rsi)
	ret
	.cfi_endproc
.LFE195:
	.size	s370_1E14, .-s370_1E14
	.p2align 4,,15
	.globl	s370_1E15
	.type	s370_1E15, @function
s370_1E15:
.LFB196:
	.cfi_startproc
	movl	200(%rsi), %edx
	xorl	%ecx, %ecx
	movl	232(%rsi), %eax
	addq	$2, 136(%rsi)
	addl	%edx, %eax
	testl	%eax, %eax
	movl	%eax, 200(%rsi)
	setne	%cl
	cmpl	%edx, %eax
	sbbl	%eax, %eax
	andl	$2, %eax
	orl	%ecx, %eax
	movb	%al, 100(%rsi)
	ret
	.cfi_endproc
.LFE196:
	.size	s370_1E15, .-s370_1E15
	.p2align 4,,15
	.globl	s370_1E16
	.type	s370_1E16, @function
s370_1E16:
.LFB197:
	.cfi_startproc
	movl	200(%rsi), %edx
	xorl	%ecx, %ecx
	movl	240(%rsi), %eax
	addq	$2, 136(%rsi)
	addl	%edx, %eax
	testl	%eax, %eax
	movl	%eax, 200(%rsi)
	setne	%cl
	cmpl	%edx, %eax
	sbbl	%eax, %eax
	andl	$2, %eax
	orl	%ecx, %eax
	movb	%al, 100(%rsi)
	ret
	.cfi_endproc
.LFE197:
	.size	s370_1E16, .-s370_1E16
	.p2align 4,,15
	.globl	s370_1E17
	.type	s370_1E17, @function
s370_1E17:
.LFB198:
	.cfi_startproc
	movl	200(%rsi), %edx
	xorl	%ecx, %ecx
	movl	248(%rsi), %eax
	addq	$2, 136(%rsi)
	addl	%edx, %eax
	testl	%eax, %eax
	movl	%eax, 200(%rsi)
	setne	%cl
	cmpl	%edx, %eax
	sbbl	%eax, %eax
	andl	$2, %eax
	orl	%ecx, %eax
	movb	%al, 100(%rsi)
	ret
	.cfi_endproc
.LFE198:
	.size	s370_1E17, .-s370_1E17
	.p2align 4,,15
	.globl	s370_1E18
	.type	s370_1E18, @function
s370_1E18:
.LFB199:
	.cfi_startproc
	movl	200(%rsi), %edx
	xorl	%ecx, %ecx
	movl	256(%rsi), %eax
	addq	$2, 136(%rsi)
	addl	%edx, %eax
	testl	%eax, %eax
	movl	%eax, 200(%rsi)
	setne	%cl
	cmpl	%edx, %eax
	sbbl	%eax, %eax
	andl	$2, %eax
	orl	%ecx, %eax
	movb	%al, 100(%rsi)
	ret
	.cfi_endproc
.LFE199:
	.size	s370_1E18, .-s370_1E18
	.p2align 4,,15
	.globl	s370_1E19
	.type	s370_1E19, @function
s370_1E19:
.LFB200:
	.cfi_startproc
	movl	200(%rsi), %edx
	xorl	%ecx, %ecx
	movl	264(%rsi), %eax
	addq	$2, 136(%rsi)
	addl	%edx, %eax
	testl	%eax, %eax
	movl	%eax, 200(%rsi)
	setne	%cl
	cmpl	%edx, %eax
	sbbl	%eax, %eax
	andl	$2, %eax
	orl	%ecx, %eax
	movb	%al, 100(%rsi)
	ret
	.cfi_endproc
.LFE200:
	.size	s370_1E19, .-s370_1E19
	.p2align 4,,15
	.globl	s370_1E1A
	.type	s370_1E1A, @function
s370_1E1A:
.LFB201:
	.cfi_startproc
	movl	200(%rsi), %edx
	xorl	%ecx, %ecx
	movl	272(%rsi), %eax
	addq	$2, 136(%rsi)
	addl	%edx, %eax
	testl	%eax, %eax
	movl	%eax, 200(%rsi)
	setne	%cl
	cmpl	%edx, %eax
	sbbl	%eax, %eax
	andl	$2, %eax
	orl	%ecx, %eax
	movb	%al, 100(%rsi)
	ret
	.cfi_endproc
.LFE201:
	.size	s370_1E1A, .-s370_1E1A
	.p2align 4,,15
	.globl	s370_1E1B
	.type	s370_1E1B, @function
s370_1E1B:
.LFB202:
	.cfi_startproc
	movl	200(%rsi), %edx
	xorl	%ecx, %ecx
	movl	280(%rsi), %eax
	addq	$2, 136(%rsi)
	addl	%edx, %eax
	testl	%eax, %eax
	movl	%eax, 200(%rsi)
	setne	%cl
	cmpl	%edx, %eax
	sbbl	%eax, %eax
	andl	$2, %eax
	orl	%ecx, %eax
	movb	%al, 100(%rsi)
	ret
	.cfi_endproc
.LFE202:
	.size	s370_1E1B, .-s370_1E1B
	.p2align 4,,15
	.globl	s370_1E1C
	.type	s370_1E1C, @function
s370_1E1C:
.LFB203:
	.cfi_startproc
	movl	200(%rsi), %edx
	xorl	%ecx, %ecx
	movl	288(%rsi), %eax
	addq	$2, 136(%rsi)
	addl	%edx, %eax
	testl	%eax, %eax
	movl	%eax, 200(%rsi)
	setne	%cl
	cmpl	%edx, %eax
	sbbl	%eax, %eax
	andl	$2, %eax
	orl	%ecx, %eax
	movb	%al, 100(%rsi)
	ret
	.cfi_endproc
.LFE203:
	.size	s370_1E1C, .-s370_1E1C
	.p2align 4,,15
	.globl	s370_1E1D
	.type	s370_1E1D, @function
s370_1E1D:
.LFB204:
	.cfi_startproc
	movl	200(%rsi), %edx
	xorl	%ecx, %ecx
	movl	296(%rsi), %eax
	addq	$2, 136(%rsi)
	addl	%edx, %eax
	testl	%eax, %eax
	movl	%eax, 200(%rsi)
	setne	%cl
	cmpl	%edx, %eax
	sbbl	%eax, %eax
	andl	$2, %eax
	orl	%ecx, %eax
	movb	%al, 100(%rsi)
	ret
	.cfi_endproc
.LFE204:
	.size	s370_1E1D, .-s370_1E1D
	.p2align 4,,15
	.globl	s370_1E1E
	.type	s370_1E1E, @function
s370_1E1E:
.LFB205:
	.cfi_startproc
	movl	200(%rsi), %edx
	xorl	%ecx, %ecx
	movl	304(%rsi), %eax
	addq	$2, 136(%rsi)
	addl	%edx, %eax
	testl	%eax, %eax
	movl	%eax, 200(%rsi)
	setne	%cl
	cmpl	%edx, %eax
	sbbl	%eax, %eax
	andl	$2, %eax
	orl	%ecx, %eax
	movb	%al, 100(%rsi)
	ret
	.cfi_endproc
.LFE205:
	.size	s370_1E1E, .-s370_1E1E
	.p2align 4,,15
	.globl	s370_1E1F
	.type	s370_1E1F, @function
s370_1E1F:
.LFB206:
	.cfi_startproc
	movl	200(%rsi), %edx
	xorl	%ecx, %ecx
	movl	312(%rsi), %eax
	addq	$2, 136(%rsi)
	addl	%edx, %eax
	testl	%eax, %eax
	movl	%eax, 200(%rsi)
	setne	%cl
	cmpl	%edx, %eax
	sbbl	%eax, %eax
	andl	$2, %eax
	orl	%ecx, %eax
	movb	%al, 100(%rsi)
	ret
	.cfi_endproc
.LFE206:
	.size	s370_1E1F, .-s370_1E1F
	.p2align 4,,15
	.globl	s370_1E20
	.type	s370_1E20, @function
s370_1E20:
.LFB207:
	.cfi_startproc
	movl	208(%rsi), %edx
	xorl	%ecx, %ecx
	movl	192(%rsi), %eax
	addq	$2, 136(%rsi)
	addl	%edx, %eax
	testl	%eax, %eax
	movl	%eax, 208(%rsi)
	setne	%cl
	cmpl	%edx, %eax
	sbbl	%eax, %eax
	andl	$2, %eax
	orl	%ecx, %eax
	movb	%al, 100(%rsi)
	ret
	.cfi_endproc
.LFE207:
	.size	s370_1E20, .-s370_1E20
	.p2align 4,,15
	.globl	s370_1E21
	.type	s370_1E21, @function
s370_1E21:
.LFB208:
	.cfi_startproc
	movl	208(%rsi), %edx
	xorl	%ecx, %ecx
	movl	200(%rsi), %eax
	addq	$2, 136(%rsi)
	addl	%edx, %eax
	testl	%eax, %eax
	movl	%eax, 208(%rsi)
	setne	%cl
	cmpl	%edx, %eax
	sbbl	%eax, %eax
	andl	$2, %eax
	orl	%ecx, %eax
	movb	%al, 100(%rsi)
	ret
	.cfi_endproc
.LFE208:
	.size	s370_1E21, .-s370_1E21
	.p2align 4,,15
	.globl	s370_1E22
	.type	s370_1E22, @function
s370_1E22:
.LFB209:
	.cfi_startproc
	movl	208(%rsi), %edx
	xorl	%ecx, %ecx
	addq	$2, 136(%rsi)
	leal	(%rdx,%rdx), %eax
	testl	%eax, %eax
	movl	%eax, 208(%rsi)
	setne	%cl
	cmpl	%edx, %eax
	sbbl	%eax, %eax
	andl	$2, %eax
	orl	%ecx, %eax
	movb	%al, 100(%rsi)
	ret
	.cfi_endproc
.LFE209:
	.size	s370_1E22, .-s370_1E22
	.p2align 4,,15
	.globl	s370_1E23
	.type	s370_1E23, @function
s370_1E23:
.LFB210:
	.cfi_startproc
	movl	208(%rsi), %edx
	xorl	%ecx, %ecx
	movl	216(%rsi), %eax
	addq	$2, 136(%rsi)
	addl	%edx, %eax
	testl	%eax, %eax
	movl	%eax, 208(%rsi)
	setne	%cl
	cmpl	%edx, %eax
	sbbl	%eax, %eax
	andl	$2, %eax
	orl	%ecx, %eax
	movb	%al, 100(%rsi)
	ret
	.cfi_endproc
.LFE210:
	.size	s370_1E23, .-s370_1E23
	.p2align 4,,15
	.globl	s370_1E24
	.type	s370_1E24, @function
s370_1E24:
.LFB211:
	.cfi_startproc
	movl	208(%rsi), %edx
	xorl	%ecx, %ecx
	movl	224(%rsi), %eax
	addq	$2, 136(%rsi)
	addl	%edx, %eax
	testl	%eax, %eax
	movl	%eax, 208(%rsi)
	setne	%cl
	cmpl	%edx, %eax
	sbbl	%eax, %eax
	andl	$2, %eax
	orl	%ecx, %eax
	movb	%al, 100(%rsi)
	ret
	.cfi_endproc
.LFE211:
	.size	s370_1E24, .-s370_1E24
	.p2align 4,,15
	.globl	s370_1E25
	.type	s370_1E25, @function
s370_1E25:
.LFB212:
	.cfi_startproc
	movl	208(%rsi), %edx
	xorl	%ecx, %ecx
	movl	232(%rsi), %eax
	addq	$2, 136(%rsi)
	addl	%edx, %eax
	testl	%eax, %eax
	movl	%eax, 208(%rsi)
	setne	%cl
	cmpl	%edx, %eax
	sbbl	%eax, %eax
	andl	$2, %eax
	orl	%ecx, %eax
	movb	%al, 100(%rsi)
	ret
	.cfi_endproc
.LFE212:
	.size	s370_1E25, .-s370_1E25
	.p2align 4,,15
	.globl	s370_1E26
	.type	s370_1E26, @function
s370_1E26:
.LFB213:
	.cfi_startproc
	movl	208(%rsi), %edx
	xorl	%ecx, %ecx
	movl	240(%rsi), %eax
	addq	$2, 136(%rsi)
	addl	%edx, %eax
	testl	%eax, %eax
	movl	%eax, 208(%rsi)
	setne	%cl
	cmpl	%edx, %eax
	sbbl	%eax, %eax
	andl	$2, %eax
	orl	%ecx, %eax
	movb	%al, 100(%rsi)
	ret
	.cfi_endproc
.LFE213:
	.size	s370_1E26, .-s370_1E26
	.p2align 4,,15
	.globl	s370_1E27
	.type	s370_1E27, @function
s370_1E27:
.LFB214:
	.cfi_startproc
	movl	208(%rsi), %edx
	xorl	%ecx, %ecx
	movl	248(%rsi), %eax
	addq	$2, 136(%rsi)
	addl	%edx, %eax
	testl	%eax, %eax
	movl	%eax, 208(%rsi)
	setne	%cl
	cmpl	%edx, %eax
	sbbl	%eax, %eax
	andl	$2, %eax
	orl	%ecx, %eax
	movb	%al, 100(%rsi)
	ret
	.cfi_endproc
.LFE214:
	.size	s370_1E27, .-s370_1E27
	.p2align 4,,15
	.globl	s370_1E28
	.type	s370_1E28, @function
s370_1E28:
.LFB215:
	.cfi_startproc
	movl	208(%rsi), %edx
	xorl	%ecx, %ecx
	movl	256(%rsi), %eax
	addq	$2, 136(%rsi)
	addl	%edx, %eax
	testl	%eax, %eax
	movl	%eax, 208(%rsi)
	setne	%cl
	cmpl	%edx, %eax
	sbbl	%eax, %eax
	andl	$2, %eax
	orl	%ecx, %eax
	movb	%al, 100(%rsi)
	ret
	.cfi_endproc
.LFE215:
	.size	s370_1E28, .-s370_1E28
	.p2align 4,,15
	.globl	s370_1E29
	.type	s370_1E29, @function
s370_1E29:
.LFB216:
	.cfi_startproc
	movl	208(%rsi), %edx
	xorl	%ecx, %ecx
	movl	264(%rsi), %eax
	addq	$2, 136(%rsi)
	addl	%edx, %eax
	testl	%eax, %eax
	movl	%eax, 208(%rsi)
	setne	%cl
	cmpl	%edx, %eax
	sbbl	%eax, %eax
	andl	$2, %eax
	orl	%ecx, %eax
	movb	%al, 100(%rsi)
	ret
	.cfi_endproc
.LFE216:
	.size	s370_1E29, .-s370_1E29
	.p2align 4,,15
	.globl	s370_1E2A
	.type	s370_1E2A, @function
s370_1E2A:
.LFB217:
	.cfi_startproc
	movl	208(%rsi), %edx
	xorl	%ecx, %ecx
	movl	272(%rsi), %eax
	addq	$2, 136(%rsi)
	addl	%edx, %eax
	testl	%eax, %eax
	movl	%eax, 208(%rsi)
	setne	%cl
	cmpl	%edx, %eax
	sbbl	%eax, %eax
	andl	$2, %eax
	orl	%ecx, %eax
	movb	%al, 100(%rsi)
	ret
	.cfi_endproc
.LFE217:
	.size	s370_1E2A, .-s370_1E2A
	.p2align 4,,15
	.globl	s370_1E2B
	.type	s370_1E2B, @function
s370_1E2B:
.LFB218:
	.cfi_startproc
	movl	208(%rsi), %edx
	xorl	%ecx, %ecx
	movl	280(%rsi), %eax
	addq	$2, 136(%rsi)
	addl	%edx, %eax
	testl	%eax, %eax
	movl	%eax, 208(%rsi)
	setne	%cl
	cmpl	%edx, %eax
	sbbl	%eax, %eax
	andl	$2, %eax
	orl	%ecx, %eax
	movb	%al, 100(%rsi)
	ret
	.cfi_endproc
.LFE218:
	.size	s370_1E2B, .-s370_1E2B
	.p2align 4,,15
	.globl	s370_1E2C
	.type	s370_1E2C, @function
s370_1E2C:
.LFB219:
	.cfi_startproc
	movl	208(%rsi), %edx
	xorl	%ecx, %ecx
	movl	288(%rsi), %eax
	addq	$2, 136(%rsi)
	addl	%edx, %eax
	testl	%eax, %eax
	movl	%eax, 208(%rsi)
	setne	%cl
	cmpl	%edx, %eax
	sbbl	%eax, %eax
	andl	$2, %eax
	orl	%ecx, %eax
	movb	%al, 100(%rsi)
	ret
	.cfi_endproc
.LFE219:
	.size	s370_1E2C, .-s370_1E2C
	.p2align 4,,15
	.globl	s370_1E2D
	.type	s370_1E2D, @function
s370_1E2D:
.LFB220:
	.cfi_startproc
	movl	208(%rsi), %edx
	xorl	%ecx, %ecx
	movl	296(%rsi), %eax
	addq	$2, 136(%rsi)
	addl	%edx, %eax
	testl	%eax, %eax
	movl	%eax, 208(%rsi)
	setne	%cl
	cmpl	%edx, %eax
	sbbl	%eax, %eax
	andl	$2, %eax
	orl	%ecx, %eax
	movb	%al, 100(%rsi)
	ret
	.cfi_endproc
.LFE220:
	.size	s370_1E2D, .-s370_1E2D
	.p2align 4,,15
	.globl	s370_1E2E
	.type	s370_1E2E, @function
s370_1E2E:
.LFB221:
	.cfi_startproc
	movl	208(%rsi), %edx
	xorl	%ecx, %ecx
	movl	304(%rsi), %eax
	addq	$2, 136(%rsi)
	addl	%edx, %eax
	testl	%eax, %eax
	movl	%eax, 208(%rsi)
	setne	%cl
	cmpl	%edx, %eax
	sbbl	%eax, %eax
	andl	$2, %eax
	orl	%ecx, %eax
	movb	%al, 100(%rsi)
	ret
	.cfi_endproc
.LFE221:
	.size	s370_1E2E, .-s370_1E2E
	.p2align 4,,15
	.globl	s370_1E2F
	.type	s370_1E2F, @function
s370_1E2F:
.LFB222:
	.cfi_startproc
	movl	208(%rsi), %edx
	xorl	%ecx, %ecx
	movl	312(%rsi), %eax
	addq	$2, 136(%rsi)
	addl	%edx, %eax
	testl	%eax, %eax
	movl	%eax, 208(%rsi)
	setne	%cl
	cmpl	%edx, %eax
	sbbl	%eax, %eax
	andl	$2, %eax
	orl	%ecx, %eax
	movb	%al, 100(%rsi)
	ret
	.cfi_endproc
.LFE222:
	.size	s370_1E2F, .-s370_1E2F
	.p2align 4,,15
	.globl	s370_1E30
	.type	s370_1E30, @function
s370_1E30:
.LFB223:
	.cfi_startproc
	movl	216(%rsi), %edx
	xorl	%ecx, %ecx
	movl	192(%rsi), %eax
	addq	$2, 136(%rsi)
	addl	%edx, %eax
	testl	%eax, %eax
	movl	%eax, 216(%rsi)
	setne	%cl
	cmpl	%edx, %eax
	sbbl	%eax, %eax
	andl	$2, %eax
	orl	%ecx, %eax
	movb	%al, 100(%rsi)
	ret
	.cfi_endproc
.LFE223:
	.size	s370_1E30, .-s370_1E30
	.p2align 4,,15
	.globl	s370_1E31
	.type	s370_1E31, @function
s370_1E31:
.LFB224:
	.cfi_startproc
	movl	216(%rsi), %edx
	xorl	%ecx, %ecx
	movl	200(%rsi), %eax
	addq	$2, 136(%rsi)
	addl	%edx, %eax
	testl	%eax, %eax
	movl	%eax, 216(%rsi)
	setne	%cl
	cmpl	%edx, %eax
	sbbl	%eax, %eax
	andl	$2, %eax
	orl	%ecx, %eax
	movb	%al, 100(%rsi)
	ret
	.cfi_endproc
.LFE224:
	.size	s370_1E31, .-s370_1E31
	.p2align 4,,15
	.globl	s370_1E32
	.type	s370_1E32, @function
s370_1E32:
.LFB225:
	.cfi_startproc
	movl	216(%rsi), %edx
	xorl	%ecx, %ecx
	movl	208(%rsi), %eax
	addq	$2, 136(%rsi)
	addl	%edx, %eax
	testl	%eax, %eax
	movl	%eax, 216(%rsi)
	setne	%cl
	cmpl	%edx, %eax
	sbbl	%eax, %eax
	andl	$2, %eax
	orl	%ecx, %eax
	movb	%al, 100(%rsi)
	ret
	.cfi_endproc
.LFE225:
	.size	s370_1E32, .-s370_1E32
	.p2align 4,,15
	.globl	s370_1E33
	.type	s370_1E33, @function
s370_1E33:
.LFB226:
	.cfi_startproc
	movl	216(%rsi), %edx
	xorl	%ecx, %ecx
	addq	$2, 136(%rsi)
	leal	(%rdx,%rdx), %eax
	testl	%eax, %eax
	movl	%eax, 216(%rsi)
	setne	%cl
	cmpl	%edx, %eax
	sbbl	%eax, %eax
	andl	$2, %eax
	orl	%ecx, %eax
	movb	%al, 100(%rsi)
	ret
	.cfi_endproc
.LFE226:
	.size	s370_1E33, .-s370_1E33
	.p2align 4,,15
	.globl	s370_1E34
	.type	s370_1E34, @function
s370_1E34:
.LFB227:
	.cfi_startproc
	movl	216(%rsi), %edx
	xorl	%ecx, %ecx
	movl	224(%rsi), %eax
	addq	$2, 136(%rsi)
	addl	%edx, %eax
	testl	%eax, %eax
	movl	%eax, 216(%rsi)
	setne	%cl
	cmpl	%edx, %eax
	sbbl	%eax, %eax
	andl	$2, %eax
	orl	%ecx, %eax
	movb	%al, 100(%rsi)
	ret
	.cfi_endproc
.LFE227:
	.size	s370_1E34, .-s370_1E34
	.p2align 4,,15
	.globl	s370_1E35
	.type	s370_1E35, @function
s370_1E35:
.LFB228:
	.cfi_startproc
	movl	216(%rsi), %edx
	xorl	%ecx, %ecx
	movl	232(%rsi), %eax
	addq	$2, 136(%rsi)
	addl	%edx, %eax
	testl	%eax, %eax
	movl	%eax, 216(%rsi)
	setne	%cl
	cmpl	%edx, %eax
	sbbl	%eax, %eax
	andl	$2, %eax
	orl	%ecx, %eax
	movb	%al, 100(%rsi)
	ret
	.cfi_endproc
.LFE228:
	.size	s370_1E35, .-s370_1E35
	.p2align 4,,15
	.globl	s370_1E36
	.type	s370_1E36, @function
s370_1E36:
.LFB229:
	.cfi_startproc
	movl	216(%rsi), %edx
	xorl	%ecx, %ecx
	movl	240(%rsi), %eax
	addq	$2, 136(%rsi)
	addl	%edx, %eax
	testl	%eax, %eax
	movl	%eax, 216(%rsi)
	setne	%cl
	cmpl	%edx, %eax
	sbbl	%eax, %eax
	andl	$2, %eax
	orl	%ecx, %eax
	movb	%al, 100(%rsi)
	ret
	.cfi_endproc
.LFE229:
	.size	s370_1E36, .-s370_1E36
	.p2align 4,,15
	.globl	s370_1E37
	.type	s370_1E37, @function
s370_1E37:
.LFB230:
	.cfi_startproc
	movl	216(%rsi), %edx
	xorl	%ecx, %ecx
	movl	248(%rsi), %eax
	addq	$2, 136(%rsi)
	addl	%edx, %eax
	testl	%eax, %eax
	movl	%eax, 216(%rsi)
	setne	%cl
	cmpl	%edx, %eax
	sbbl	%eax, %eax
	andl	$2, %eax
	orl	%ecx, %eax
	movb	%al, 100(%rsi)
	ret
	.cfi_endproc
.LFE230:
	.size	s370_1E37, .-s370_1E37
	.p2align 4,,15
	.globl	s370_1E38
	.type	s370_1E38, @function
s370_1E38:
.LFB231:
	.cfi_startproc
	movl	216(%rsi), %edx
	xorl	%ecx, %ecx
	movl	256(%rsi), %eax
	addq	$2, 136(%rsi)
	addl	%edx, %eax
	testl	%eax, %eax
	movl	%eax, 216(%rsi)
	setne	%cl
	cmpl	%edx, %eax
	sbbl	%eax, %eax
	andl	$2, %eax
	orl	%ecx, %eax
	movb	%al, 100(%rsi)
	ret
	.cfi_endproc
.LFE231:
	.size	s370_1E38, .-s370_1E38
	.p2align 4,,15
	.globl	s370_1E39
	.type	s370_1E39, @function
s370_1E39:
.LFB232:
	.cfi_startproc
	movl	216(%rsi), %edx
	xorl	%ecx, %ecx
	movl	264(%rsi), %eax
	addq	$2, 136(%rsi)
	addl	%edx, %eax
	testl	%eax, %eax
	movl	%eax, 216(%rsi)
	setne	%cl
	cmpl	%edx, %eax
	sbbl	%eax, %eax
	andl	$2, %eax
	orl	%ecx, %eax
	movb	%al, 100(%rsi)
	ret
	.cfi_endproc
.LFE232:
	.size	s370_1E39, .-s370_1E39
	.p2align 4,,15
	.globl	s370_1E3A
	.type	s370_1E3A, @function
s370_1E3A:
.LFB233:
	.cfi_startproc
	movl	216(%rsi), %edx
	xorl	%ecx, %ecx
	movl	272(%rsi), %eax
	addq	$2, 136(%rsi)
	addl	%edx, %eax
	testl	%eax, %eax
	movl	%eax, 216(%rsi)
	setne	%cl
	cmpl	%edx, %eax
	sbbl	%eax, %eax
	andl	$2, %eax
	orl	%ecx, %eax
	movb	%al, 100(%rsi)
	ret
	.cfi_endproc
.LFE233:
	.size	s370_1E3A, .-s370_1E3A
	.p2align 4,,15
	.globl	s370_1E3B
	.type	s370_1E3B, @function
s370_1E3B:
.LFB234:
	.cfi_startproc
	movl	216(%rsi), %edx
	xorl	%ecx, %ecx
	movl	280(%rsi), %eax
	addq	$2, 136(%rsi)
	addl	%edx, %eax
	testl	%eax, %eax
	movl	%eax, 216(%rsi)
	setne	%cl
	cmpl	%edx, %eax
	sbbl	%eax, %eax
	andl	$2, %eax
	orl	%ecx, %eax
	movb	%al, 100(%rsi)
	ret
	.cfi_endproc
.LFE234:
	.size	s370_1E3B, .-s370_1E3B
	.p2align 4,,15
	.globl	s370_1E3C
	.type	s370_1E3C, @function
s370_1E3C:
.LFB235:
	.cfi_startproc
	movl	216(%rsi), %edx
	xorl	%ecx, %ecx
	movl	288(%rsi), %eax
	addq	$2, 136(%rsi)
	addl	%edx, %eax
	testl	%eax, %eax
	movl	%eax, 216(%rsi)
	setne	%cl
	cmpl	%edx, %eax
	sbbl	%eax, %eax
	andl	$2, %eax
	orl	%ecx, %eax
	movb	%al, 100(%rsi)
	ret
	.cfi_endproc
.LFE235:
	.size	s370_1E3C, .-s370_1E3C
	.p2align 4,,15
	.globl	s370_1E3D
	.type	s370_1E3D, @function
s370_1E3D:
.LFB236:
	.cfi_startproc
	movl	216(%rsi), %edx
	xorl	%ecx, %ecx
	movl	296(%rsi), %eax
	addq	$2, 136(%rsi)
	addl	%edx, %eax
	testl	%eax, %eax
	movl	%eax, 216(%rsi)
	setne	%cl
	cmpl	%edx, %eax
	sbbl	%eax, %eax
	andl	$2, %eax
	orl	%ecx, %eax
	movb	%al, 100(%rsi)
	ret
	.cfi_endproc
.LFE236:
	.size	s370_1E3D, .-s370_1E3D
	.p2align 4,,15
	.globl	s370_1E3E
	.type	s370_1E3E, @function
s370_1E3E:
.LFB237:
	.cfi_startproc
	movl	216(%rsi), %edx
	xorl	%ecx, %ecx
	movl	304(%rsi), %eax
	addq	$2, 136(%rsi)
	addl	%edx, %eax
	testl	%eax, %eax
	movl	%eax, 216(%rsi)
	setne	%cl
	cmpl	%edx, %eax
	sbbl	%eax, %eax
	andl	$2, %eax
	orl	%ecx, %eax
	movb	%al, 100(%rsi)
	ret
	.cfi_endproc
.LFE237:
	.size	s370_1E3E, .-s370_1E3E
	.p2align 4,,15
	.globl	s370_1E3F
	.type	s370_1E3F, @function
s370_1E3F:
.LFB238:
	.cfi_startproc
	movl	216(%rsi), %edx
	xorl	%ecx, %ecx
	movl	312(%rsi), %eax
	addq	$2, 136(%rsi)
	addl	%edx, %eax
	testl	%eax, %eax
	movl	%eax, 216(%rsi)
	setne	%cl
	cmpl	%edx, %eax
	sbbl	%eax, %eax
	andl	$2, %eax
	orl	%ecx, %eax
	movb	%al, 100(%rsi)
	ret
	.cfi_endproc
.LFE238:
	.size	s370_1E3F, .-s370_1E3F
	.p2align 4,,15
	.globl	s370_1E40
	.type	s370_1E40, @function
s370_1E40:
.LFB239:
	.cfi_startproc
	movl	224(%rsi), %edx
	xorl	%ecx, %ecx
	movl	192(%rsi), %eax
	addq	$2, 136(%rsi)
	addl	%edx, %eax
	testl	%eax, %eax
	movl	%eax, 224(%rsi)
	setne	%cl
	cmpl	%edx, %eax
	sbbl	%eax, %eax
	andl	$2, %eax
	orl	%ecx, %eax
	movb	%al, 100(%rsi)
	ret
	.cfi_endproc
.LFE239:
	.size	s370_1E40, .-s370_1E40
	.p2align 4,,15
	.globl	s370_1E41
	.type	s370_1E41, @function
s370_1E41:
.LFB240:
	.cfi_startproc
	movl	224(%rsi), %edx
	xorl	%ecx, %ecx
	movl	200(%rsi), %eax
	addq	$2, 136(%rsi)
	addl	%edx, %eax
	testl	%eax, %eax
	movl	%eax, 224(%rsi)
	setne	%cl
	cmpl	%edx, %eax
	sbbl	%eax, %eax
	andl	$2, %eax
	orl	%ecx, %eax
	movb	%al, 100(%rsi)
	ret
	.cfi_endproc
.LFE240:
	.size	s370_1E41, .-s370_1E41
	.p2align 4,,15
	.globl	s370_1E42
	.type	s370_1E42, @function
s370_1E42:
.LFB241:
	.cfi_startproc
	movl	224(%rsi), %edx
	xorl	%ecx, %ecx
	movl	208(%rsi), %eax
	addq	$2, 136(%rsi)
	addl	%edx, %eax
	testl	%eax, %eax
	movl	%eax, 224(%rsi)
	setne	%cl
	cmpl	%edx, %eax
	sbbl	%eax, %eax
	andl	$2, %eax
	orl	%ecx, %eax
	movb	%al, 100(%rsi)
	ret
	.cfi_endproc
.LFE241:
	.size	s370_1E42, .-s370_1E42
	.p2align 4,,15
	.globl	s370_1E43
	.type	s370_1E43, @function
s370_1E43:
.LFB242:
	.cfi_startproc
	movl	224(%rsi), %edx
	xorl	%ecx, %ecx
	movl	216(%rsi), %eax
	addq	$2, 136(%rsi)
	addl	%edx, %eax
	testl	%eax, %eax
	movl	%eax, 224(%rsi)
	setne	%cl
	cmpl	%edx, %eax
	sbbl	%eax, %eax
	andl	$2, %eax
	orl	%ecx, %eax
	movb	%al, 100(%rsi)
	ret
	.cfi_endproc
.LFE242:
	.size	s370_1E43, .-s370_1E43
	.p2align 4,,15
	.globl	s370_1E44
	.type	s370_1E44, @function
s370_1E44:
.LFB243:
	.cfi_startproc
	movl	224(%rsi), %edx
	xorl	%ecx, %ecx
	addq	$2, 136(%rsi)
	leal	(%rdx,%rdx), %eax
	testl	%eax, %eax
	movl	%eax, 224(%rsi)
	setne	%cl
	cmpl	%edx, %eax
	sbbl	%eax, %eax
	andl	$2, %eax
	orl	%ecx, %eax
	movb	%al, 100(%rsi)
	ret
	.cfi_endproc
.LFE243:
	.size	s370_1E44, .-s370_1E44
	.p2align 4,,15
	.globl	s370_1E45
	.type	s370_1E45, @function
s370_1E45:
.LFB244:
	.cfi_startproc
	movl	224(%rsi), %edx
	xorl	%ecx, %ecx
	movl	232(%rsi), %eax
	addq	$2, 136(%rsi)
	addl	%edx, %eax
	testl	%eax, %eax
	movl	%eax, 224(%rsi)
	setne	%cl
	cmpl	%edx, %eax
	sbbl	%eax, %eax
	andl	$2, %eax
	orl	%ecx, %eax
	movb	%al, 100(%rsi)
	ret
	.cfi_endproc
.LFE244:
	.size	s370_1E45, .-s370_1E45
	.p2align 4,,15
	.globl	s370_1E46
	.type	s370_1E46, @function
s370_1E46:
.LFB245:
	.cfi_startproc
	movl	224(%rsi), %edx
	xorl	%ecx, %ecx
	movl	240(%rsi), %eax
	addq	$2, 136(%rsi)
	addl	%edx, %eax
	testl	%eax, %eax
	movl	%eax, 224(%rsi)
	setne	%cl
	cmpl	%edx, %eax
	sbbl	%eax, %eax
	andl	$2, %eax
	orl	%ecx, %eax
	movb	%al, 100(%rsi)
	ret
	.cfi_endproc
.LFE245:
	.size	s370_1E46, .-s370_1E46
	.p2align 4,,15
	.globl	s370_1E47
	.type	s370_1E47, @function
s370_1E47:
.LFB246:
	.cfi_startproc
	movl	224(%rsi), %edx
	xorl	%ecx, %ecx
	movl	248(%rsi), %eax
	addq	$2, 136(%rsi)
	addl	%edx, %eax
	testl	%eax, %eax
	movl	%eax, 224(%rsi)
	setne	%cl
	cmpl	%edx, %eax
	sbbl	%eax, %eax
	andl	$2, %eax
	orl	%ecx, %eax
	movb	%al, 100(%rsi)
	ret
	.cfi_endproc
.LFE246:
	.size	s370_1E47, .-s370_1E47
	.p2align 4,,15
	.globl	s370_1E48
	.type	s370_1E48, @function
s370_1E48:
.LFB247:
	.cfi_startproc
	movl	224(%rsi), %edx
	xorl	%ecx, %ecx
	movl	256(%rsi), %eax
	addq	$2, 136(%rsi)
	addl	%edx, %eax
	testl	%eax, %eax
	movl	%eax, 224(%rsi)
	setne	%cl
	cmpl	%edx, %eax
	sbbl	%eax, %eax
	andl	$2, %eax
	orl	%ecx, %eax
	movb	%al, 100(%rsi)
	ret
	.cfi_endproc
.LFE247:
	.size	s370_1E48, .-s370_1E48
	.p2align 4,,15
	.globl	s370_1E49
	.type	s370_1E49, @function
s370_1E49:
.LFB248:
	.cfi_startproc
	movl	224(%rsi), %edx
	xorl	%ecx, %ecx
	movl	264(%rsi), %eax
	addq	$2, 136(%rsi)
	addl	%edx, %eax
	testl	%eax, %eax
	movl	%eax, 224(%rsi)
	setne	%cl
	cmpl	%edx, %eax
	sbbl	%eax, %eax
	andl	$2, %eax
	orl	%ecx, %eax
	movb	%al, 100(%rsi)
	ret
	.cfi_endproc
.LFE248:
	.size	s370_1E49, .-s370_1E49
	.p2align 4,,15
	.globl	s370_1E4A
	.type	s370_1E4A, @function
s370_1E4A:
.LFB249:
	.cfi_startproc
	movl	224(%rsi), %edx
	xorl	%ecx, %ecx
	movl	272(%rsi), %eax
	addq	$2, 136(%rsi)
	addl	%edx, %eax
	testl	%eax, %eax
	movl	%eax, 224(%rsi)
	setne	%cl
	cmpl	%edx, %eax
	sbbl	%eax, %eax
	andl	$2, %eax
	orl	%ecx, %eax
	movb	%al, 100(%rsi)
	ret
	.cfi_endproc
.LFE249:
	.size	s370_1E4A, .-s370_1E4A
	.p2align 4,,15
	.globl	s370_1E4B
	.type	s370_1E4B, @function
s370_1E4B:
.LFB250:
	.cfi_startproc
	movl	224(%rsi), %edx
	xorl	%ecx, %ecx
	movl	280(%rsi), %eax
	addq	$2, 136(%rsi)
	addl	%edx, %eax
	testl	%eax, %eax
	movl	%eax, 224(%rsi)
	setne	%cl
	cmpl	%edx, %eax
	sbbl	%eax, %eax
	andl	$2, %eax
	orl	%ecx, %eax
	movb	%al, 100(%rsi)
	ret
	.cfi_endproc
.LFE250:
	.size	s370_1E4B, .-s370_1E4B
	.p2align 4,,15
	.globl	s370_1E4C
	.type	s370_1E4C, @function
s370_1E4C:
.LFB251:
	.cfi_startproc
	movl	224(%rsi), %edx
	xorl	%ecx, %ecx
	movl	288(%rsi), %eax
	addq	$2, 136(%rsi)
	addl	%edx, %eax
	testl	%eax, %eax
	movl	%eax, 224(%rsi)
	setne	%cl
	cmpl	%edx, %eax
	sbbl	%eax, %eax
	andl	$2, %eax
	orl	%ecx, %eax
	movb	%al, 100(%rsi)
	ret
	.cfi_endproc
.LFE251:
	.size	s370_1E4C, .-s370_1E4C
	.p2align 4,,15
	.globl	s370_1E4D
	.type	s370_1E4D, @function
s370_1E4D:
.LFB252:
	.cfi_startproc
	movl	224(%rsi), %edx
	xorl	%ecx, %ecx
	movl	296(%rsi), %eax
	addq	$2, 136(%rsi)
	addl	%edx, %eax
	testl	%eax, %eax
	movl	%eax, 224(%rsi)
	setne	%cl
	cmpl	%edx, %eax
	sbbl	%eax, %eax
	andl	$2, %eax
	orl	%ecx, %eax
	movb	%al, 100(%rsi)
	ret
	.cfi_endproc
.LFE252:
	.size	s370_1E4D, .-s370_1E4D
	.p2align 4,,15
	.globl	s370_1E4E
	.type	s370_1E4E, @function
s370_1E4E:
.LFB253:
	.cfi_startproc
	movl	224(%rsi), %edx
	xorl	%ecx, %ecx
	movl	304(%rsi), %eax
	addq	$2, 136(%rsi)
	addl	%edx, %eax
	testl	%eax, %eax
	movl	%eax, 224(%rsi)
	setne	%cl
	cmpl	%edx, %eax
	sbbl	%eax, %eax
	andl	$2, %eax
	orl	%ecx, %eax
	movb	%al, 100(%rsi)
	ret
	.cfi_endproc
.LFE253:
	.size	s370_1E4E, .-s370_1E4E
	.p2align 4,,15
	.globl	s370_1E4F
	.type	s370_1E4F, @function
s370_1E4F:
.LFB254:
	.cfi_startproc
	movl	224(%rsi), %edx
	xorl	%ecx, %ecx
	movl	312(%rsi), %eax
	addq	$2, 136(%rsi)
	addl	%edx, %eax
	testl	%eax, %eax
	movl	%eax, 224(%rsi)
	setne	%cl
	cmpl	%edx, %eax
	sbbl	%eax, %eax
	andl	$2, %eax
	orl	%ecx, %eax
	movb	%al, 100(%rsi)
	ret
	.cfi_endproc
.LFE254:
	.size	s370_1E4F, .-s370_1E4F
	.p2align 4,,15
	.globl	s370_1E50
	.type	s370_1E50, @function
s370_1E50:
.LFB255:
	.cfi_startproc
	movl	232(%rsi), %edx
	xorl	%ecx, %ecx
	movl	192(%rsi), %eax
	addq	$2, 136(%rsi)
	addl	%edx, %eax
	testl	%eax, %eax
	movl	%eax, 232(%rsi)
	setne	%cl
	cmpl	%edx, %eax
	sbbl	%eax, %eax
	andl	$2, %eax
	orl	%ecx, %eax
	movb	%al, 100(%rsi)
	ret
	.cfi_endproc
.LFE255:
	.size	s370_1E50, .-s370_1E50
	.p2align 4,,15
	.globl	s370_1E51
	.type	s370_1E51, @function
s370_1E51:
.LFB256:
	.cfi_startproc
	movl	232(%rsi), %edx
	xorl	%ecx, %ecx
	movl	200(%rsi), %eax
	addq	$2, 136(%rsi)
	addl	%edx, %eax
	testl	%eax, %eax
	movl	%eax, 232(%rsi)
	setne	%cl
	cmpl	%edx, %eax
	sbbl	%eax, %eax
	andl	$2, %eax
	orl	%ecx, %eax
	movb	%al, 100(%rsi)
	ret
	.cfi_endproc
.LFE256:
	.size	s370_1E51, .-s370_1E51
	.p2align 4,,15
	.globl	s370_1E52
	.type	s370_1E52, @function
s370_1E52:
.LFB257:
	.cfi_startproc
	movl	232(%rsi), %edx
	xorl	%ecx, %ecx
	movl	208(%rsi), %eax
	addq	$2, 136(%rsi)
	addl	%edx, %eax
	testl	%eax, %eax
	movl	%eax, 232(%rsi)
	setne	%cl
	cmpl	%edx, %eax
	sbbl	%eax, %eax
	andl	$2, %eax
	orl	%ecx, %eax
	movb	%al, 100(%rsi)
	ret
	.cfi_endproc
.LFE257:
	.size	s370_1E52, .-s370_1E52
	.p2align 4,,15
	.globl	s370_1E53
	.type	s370_1E53, @function
s370_1E53:
.LFB258:
	.cfi_startproc
	movl	232(%rsi), %edx
	xorl	%ecx, %ecx
	movl	216(%rsi), %eax
	addq	$2, 136(%rsi)
	addl	%edx, %eax
	testl	%eax, %eax
	movl	%eax, 232(%rsi)
	setne	%cl
	cmpl	%edx, %eax
	sbbl	%eax, %eax
	andl	$2, %eax
	orl	%ecx, %eax
	movb	%al, 100(%rsi)
	ret
	.cfi_endproc
.LFE258:
	.size	s370_1E53, .-s370_1E53
	.p2align 4,,15
	.globl	s370_1E54
	.type	s370_1E54, @function
s370_1E54:
.LFB259:
	.cfi_startproc
	movl	232(%rsi), %edx
	xorl	%ecx, %ecx
	movl	224(%rsi), %eax
	addq	$2, 136(%rsi)
	addl	%edx, %eax
	testl	%eax, %eax
	movl	%eax, 232(%rsi)
	setne	%cl
	cmpl	%edx, %eax
	sbbl	%eax, %eax
	andl	$2, %eax
	orl	%ecx, %eax
	movb	%al, 100(%rsi)
	ret
	.cfi_endproc
.LFE259:
	.size	s370_1E54, .-s370_1E54
	.p2align 4,,15
	.globl	s370_1E55
	.type	s370_1E55, @function
s370_1E55:
.LFB260:
	.cfi_startproc
	movl	232(%rsi), %edx
	xorl	%ecx, %ecx
	addq	$2, 136(%rsi)
	leal	(%rdx,%rdx), %eax
	testl	%eax, %eax
	movl	%eax, 232(%rsi)
	setne	%cl
	cmpl	%edx, %eax
	sbbl	%eax, %eax
	andl	$2, %eax
	orl	%ecx, %eax
	movb	%al, 100(%rsi)
	ret
	.cfi_endproc
.LFE260:
	.size	s370_1E55, .-s370_1E55
	.p2align 4,,15
	.globl	s370_1E56
	.type	s370_1E56, @function
s370_1E56:
.LFB261:
	.cfi_startproc
	movl	232(%rsi), %edx
	xorl	%ecx, %ecx
	movl	240(%rsi), %eax
	addq	$2, 136(%rsi)
	addl	%edx, %eax
	testl	%eax, %eax
	movl	%eax, 232(%rsi)
	setne	%cl
	cmpl	%edx, %eax
	sbbl	%eax, %eax
	andl	$2, %eax
	orl	%ecx, %eax
	movb	%al, 100(%rsi)
	ret
	.cfi_endproc
.LFE261:
	.size	s370_1E56, .-s370_1E56
	.p2align 4,,15
	.globl	s370_1E57
	.type	s370_1E57, @function
s370_1E57:
.LFB262:
	.cfi_startproc
	movl	232(%rsi), %edx
	xorl	%ecx, %ecx
	movl	248(%rsi), %eax
	addq	$2, 136(%rsi)
	addl	%edx, %eax
	testl	%eax, %eax
	movl	%eax, 232(%rsi)
	setne	%cl
	cmpl	%edx, %eax
	sbbl	%eax, %eax
	andl	$2, %eax
	orl	%ecx, %eax
	movb	%al, 100(%rsi)
	ret
	.cfi_endproc
.LFE262:
	.size	s370_1E57, .-s370_1E57
	.p2align 4,,15
	.globl	s370_1E58
	.type	s370_1E58, @function
s370_1E58:
.LFB263:
	.cfi_startproc
	movl	232(%rsi), %edx
	xorl	%ecx, %ecx
	movl	256(%rsi), %eax
	addq	$2, 136(%rsi)
	addl	%edx, %eax
	testl	%eax, %eax
	movl	%eax, 232(%rsi)
	setne	%cl
	cmpl	%edx, %eax
	sbbl	%eax, %eax
	andl	$2, %eax
	orl	%ecx, %eax
	movb	%al, 100(%rsi)
	ret
	.cfi_endproc
.LFE263:
	.size	s370_1E58, .-s370_1E58
	.p2align 4,,15
	.globl	s370_1E59
	.type	s370_1E59, @function
s370_1E59:
.LFB264:
	.cfi_startproc
	movl	232(%rsi), %edx
	xorl	%ecx, %ecx
	movl	264(%rsi), %eax
	addq	$2, 136(%rsi)
	addl	%edx, %eax
	testl	%eax, %eax
	movl	%eax, 232(%rsi)
	setne	%cl
	cmpl	%edx, %eax
	sbbl	%eax, %eax
	andl	$2, %eax
	orl	%ecx, %eax
	movb	%al, 100(%rsi)
	ret
	.cfi_endproc
.LFE264:
	.size	s370_1E59, .-s370_1E59
	.p2align 4,,15
	.globl	s370_1E5A
	.type	s370_1E5A, @function
s370_1E5A:
.LFB265:
	.cfi_startproc
	movl	232(%rsi), %edx
	xorl	%ecx, %ecx
	movl	272(%rsi), %eax
	addq	$2, 136(%rsi)
	addl	%edx, %eax
	testl	%eax, %eax
	movl	%eax, 232(%rsi)
	setne	%cl
	cmpl	%edx, %eax
	sbbl	%eax, %eax
	andl	$2, %eax
	orl	%ecx, %eax
	movb	%al, 100(%rsi)
	ret
	.cfi_endproc
.LFE265:
	.size	s370_1E5A, .-s370_1E5A
	.p2align 4,,15
	.globl	s370_1E5B
	.type	s370_1E5B, @function
s370_1E5B:
.LFB266:
	.cfi_startproc
	movl	232(%rsi), %edx
	xorl	%ecx, %ecx
	movl	280(%rsi), %eax
	addq	$2, 136(%rsi)
	addl	%edx, %eax
	testl	%eax, %eax
	movl	%eax, 232(%rsi)
	setne	%cl
	cmpl	%edx, %eax
	sbbl	%eax, %eax
	andl	$2, %eax
	orl	%ecx, %eax
	movb	%al, 100(%rsi)
	ret
	.cfi_endproc
.LFE266:
	.size	s370_1E5B, .-s370_1E5B
	.p2align 4,,15
	.globl	s370_1E5C
	.type	s370_1E5C, @function
s370_1E5C:
.LFB267:
	.cfi_startproc
	movl	232(%rsi), %edx
	xorl	%ecx, %ecx
	movl	288(%rsi), %eax
	addq	$2, 136(%rsi)
	addl	%edx, %eax
	testl	%eax, %eax
	movl	%eax, 232(%rsi)
	setne	%cl
	cmpl	%edx, %eax
	sbbl	%eax, %eax
	andl	$2, %eax
	orl	%ecx, %eax
	movb	%al, 100(%rsi)
	ret
	.cfi_endproc
.LFE267:
	.size	s370_1E5C, .-s370_1E5C
	.p2align 4,,15
	.globl	s370_1E5D
	.type	s370_1E5D, @function
s370_1E5D:
.LFB268:
	.cfi_startproc
	movl	232(%rsi), %edx
	xorl	%ecx, %ecx
	movl	296(%rsi), %eax
	addq	$2, 136(%rsi)
	addl	%edx, %eax
	testl	%eax, %eax
	movl	%eax, 232(%rsi)
	setne	%cl
	cmpl	%edx, %eax
	sbbl	%eax, %eax
	andl	$2, %eax
	orl	%ecx, %eax
	movb	%al, 100(%rsi)
	ret
	.cfi_endproc
.LFE268:
	.size	s370_1E5D, .-s370_1E5D
	.p2align 4,,15
	.globl	s370_1E5E
	.type	s370_1E5E, @function
s370_1E5E:
.LFB269:
	.cfi_startproc
	movl	232(%rsi), %edx
	xorl	%ecx, %ecx
	movl	304(%rsi), %eax
	addq	$2, 136(%rsi)
	addl	%edx, %eax
	testl	%eax, %eax
	movl	%eax, 232(%rsi)
	setne	%cl
	cmpl	%edx, %eax
	sbbl	%eax, %eax
	andl	$2, %eax
	orl	%ecx, %eax
	movb	%al, 100(%rsi)
	ret
	.cfi_endproc
.LFE269:
	.size	s370_1E5E, .-s370_1E5E
	.p2align 4,,15
	.globl	s370_1E5F
	.type	s370_1E5F, @function
s370_1E5F:
.LFB270:
	.cfi_startproc
	movl	232(%rsi), %edx
	xorl	%ecx, %ecx
	movl	312(%rsi), %eax
	addq	$2, 136(%rsi)
	addl	%edx, %eax
	testl	%eax, %eax
	movl	%eax, 232(%rsi)
	setne	%cl
	cmpl	%edx, %eax
	sbbl	%eax, %eax
	andl	$2, %eax
	orl	%ecx, %eax
	movb	%al, 100(%rsi)
	ret
	.cfi_endproc
.LFE270:
	.size	s370_1E5F, .-s370_1E5F
	.p2align 4,,15
	.globl	s370_1E60
	.type	s370_1E60, @function
s370_1E60:
.LFB271:
	.cfi_startproc
	movl	240(%rsi), %edx
	xorl	%ecx, %ecx
	movl	192(%rsi), %eax
	addq	$2, 136(%rsi)
	addl	%edx, %eax
	testl	%eax, %eax
	movl	%eax, 240(%rsi)
	setne	%cl
	cmpl	%edx, %eax
	sbbl	%eax, %eax
	andl	$2, %eax
	orl	%ecx, %eax
	movb	%al, 100(%rsi)
	ret
	.cfi_endproc
.LFE271:
	.size	s370_1E60, .-s370_1E60
	.p2align 4,,15
	.globl	s370_1E61
	.type	s370_1E61, @function
s370_1E61:
.LFB272:
	.cfi_startproc
	movl	240(%rsi), %edx
	xorl	%ecx, %ecx
	movl	200(%rsi), %eax
	addq	$2, 136(%rsi)
	addl	%edx, %eax
	testl	%eax, %eax
	movl	%eax, 240(%rsi)
	setne	%cl
	cmpl	%edx, %eax
	sbbl	%eax, %eax
	andl	$2, %eax
	orl	%ecx, %eax
	movb	%al, 100(%rsi)
	ret
	.cfi_endproc
.LFE272:
	.size	s370_1E61, .-s370_1E61
	.p2align 4,,15
	.globl	s370_1E62
	.type	s370_1E62, @function
s370_1E62:
.LFB273:
	.cfi_startproc
	movl	240(%rsi), %edx
	xorl	%ecx, %ecx
	movl	208(%rsi), %eax
	addq	$2, 136(%rsi)
	addl	%edx, %eax
	testl	%eax, %eax
	movl	%eax, 240(%rsi)
	setne	%cl
	cmpl	%edx, %eax
	sbbl	%eax, %eax
	andl	$2, %eax
	orl	%ecx, %eax
	movb	%al, 100(%rsi)
	ret
	.cfi_endproc
.LFE273:
	.size	s370_1E62, .-s370_1E62
	.p2align 4,,15
	.globl	s370_1E63
	.type	s370_1E63, @function
s370_1E63:
.LFB274:
	.cfi_startproc
	movl	240(%rsi), %edx
	xorl	%ecx, %ecx
	movl	216(%rsi), %eax
	addq	$2, 136(%rsi)
	addl	%edx, %eax
	testl	%eax, %eax
	movl	%eax, 240(%rsi)
	setne	%cl
	cmpl	%edx, %eax
	sbbl	%eax, %eax
	andl	$2, %eax
	orl	%ecx, %eax
	movb	%al, 100(%rsi)
	ret
	.cfi_endproc
.LFE274:
	.size	s370_1E63, .-s370_1E63
	.p2align 4,,15
	.globl	s370_1E64
	.type	s370_1E64, @function
s370_1E64:
.LFB275:
	.cfi_startproc
	movl	240(%rsi), %edx
	xorl	%ecx, %ecx
	movl	224(%rsi), %eax
	addq	$2, 136(%rsi)
	addl	%edx, %eax
	testl	%eax, %eax
	movl	%eax, 240(%rsi)
	setne	%cl
	cmpl	%edx, %eax
	sbbl	%eax, %eax
	andl	$2, %eax
	orl	%ecx, %eax
	movb	%al, 100(%rsi)
	ret
	.cfi_endproc
.LFE275:
	.size	s370_1E64, .-s370_1E64
	.p2align 4,,15
	.globl	s370_1E65
	.type	s370_1E65, @function
s370_1E65:
.LFB276:
	.cfi_startproc
	movl	240(%rsi), %edx
	xorl	%ecx, %ecx
	movl	232(%rsi), %eax
	addq	$2, 136(%rsi)
	addl	%edx, %eax
	testl	%eax, %eax
	movl	%eax, 240(%rsi)
	setne	%cl
	cmpl	%edx, %eax
	sbbl	%eax, %eax
	andl	$2, %eax
	orl	%ecx, %eax
	movb	%al, 100(%rsi)
	ret
	.cfi_endproc
.LFE276:
	.size	s370_1E65, .-s370_1E65
	.p2align 4,,15
	.globl	s370_1E66
	.type	s370_1E66, @function
s370_1E66:
.LFB277:
	.cfi_startproc
	movl	240(%rsi), %edx
	xorl	%ecx, %ecx
	addq	$2, 136(%rsi)
	leal	(%rdx,%rdx), %eax
	testl	%eax, %eax
	movl	%eax, 240(%rsi)
	setne	%cl
	cmpl	%edx, %eax
	sbbl	%eax, %eax
	andl	$2, %eax
	orl	%ecx, %eax
	movb	%al, 100(%rsi)
	ret
	.cfi_endproc
.LFE277:
	.size	s370_1E66, .-s370_1E66
	.p2align 4,,15
	.globl	s370_1E67
	.type	s370_1E67, @function
s370_1E67:
.LFB278:
	.cfi_startproc
	movl	240(%rsi), %edx
	xorl	%ecx, %ecx
	movl	248(%rsi), %eax
	addq	$2, 136(%rsi)
	addl	%edx, %eax
	testl	%eax, %eax
	movl	%eax, 240(%rsi)
	setne	%cl
	cmpl	%edx, %eax
	sbbl	%eax, %eax
	andl	$2, %eax
	orl	%ecx, %eax
	movb	%al, 100(%rsi)
	ret
	.cfi_endproc
.LFE278:
	.size	s370_1E67, .-s370_1E67
	.p2align 4,,15
	.globl	s370_1E68
	.type	s370_1E68, @function
s370_1E68:
.LFB279:
	.cfi_startproc
	movl	240(%rsi), %edx
	xorl	%ecx, %ecx
	movl	256(%rsi), %eax
	addq	$2, 136(%rsi)
	addl	%edx, %eax
	testl	%eax, %eax
	movl	%eax, 240(%rsi)
	setne	%cl
	cmpl	%edx, %eax
	sbbl	%eax, %eax
	andl	$2, %eax
	orl	%ecx, %eax
	movb	%al, 100(%rsi)
	ret
	.cfi_endproc
.LFE279:
	.size	s370_1E68, .-s370_1E68
	.p2align 4,,15
	.globl	s370_1E69
	.type	s370_1E69, @function
s370_1E69:
.LFB280:
	.cfi_startproc
	movl	240(%rsi), %edx
	xorl	%ecx, %ecx
	movl	264(%rsi), %eax
	addq	$2, 136(%rsi)
	addl	%edx, %eax
	testl	%eax, %eax
	movl	%eax, 240(%rsi)
	setne	%cl
	cmpl	%edx, %eax
	sbbl	%eax, %eax
	andl	$2, %eax
	orl	%ecx, %eax
	movb	%al, 100(%rsi)
	ret
	.cfi_endproc
.LFE280:
	.size	s370_1E69, .-s370_1E69
	.p2align 4,,15
	.globl	s370_1E6A
	.type	s370_1E6A, @function
s370_1E6A:
.LFB281:
	.cfi_startproc
	movl	240(%rsi), %edx
	xorl	%ecx, %ecx
	movl	272(%rsi), %eax
	addq	$2, 136(%rsi)
	addl	%edx, %eax
	testl	%eax, %eax
	movl	%eax, 240(%rsi)
	setne	%cl
	cmpl	%edx, %eax
	sbbl	%eax, %eax
	andl	$2, %eax
	orl	%ecx, %eax
	movb	%al, 100(%rsi)
	ret
	.cfi_endproc
.LFE281:
	.size	s370_1E6A, .-s370_1E6A
	.p2align 4,,15
	.globl	s370_1E6B
	.type	s370_1E6B, @function
s370_1E6B:
.LFB282:
	.cfi_startproc
	movl	240(%rsi), %edx
	xorl	%ecx, %ecx
	movl	280(%rsi), %eax
	addq	$2, 136(%rsi)
	addl	%edx, %eax
	testl	%eax, %eax
	movl	%eax, 240(%rsi)
	setne	%cl
	cmpl	%edx, %eax
	sbbl	%eax, %eax
	andl	$2, %eax
	orl	%ecx, %eax
	movb	%al, 100(%rsi)
	ret
	.cfi_endproc
.LFE282:
	.size	s370_1E6B, .-s370_1E6B
	.p2align 4,,15
	.globl	s370_1E6C
	.type	s370_1E6C, @function
s370_1E6C:
.LFB283:
	.cfi_startproc
	movl	240(%rsi), %edx
	xorl	%ecx, %ecx
	movl	288(%rsi), %eax
	addq	$2, 136(%rsi)
	addl	%edx, %eax
	testl	%eax, %eax
	movl	%eax, 240(%rsi)
	setne	%cl
	cmpl	%edx, %eax
	sbbl	%eax, %eax
	andl	$2, %eax
	orl	%ecx, %eax
	movb	%al, 100(%rsi)
	ret
	.cfi_endproc
.LFE283:
	.size	s370_1E6C, .-s370_1E6C
	.p2align 4,,15
	.globl	s370_1E6D
	.type	s370_1E6D, @function
s370_1E6D:
.LFB284:
	.cfi_startproc
	movl	240(%rsi), %edx
	xorl	%ecx, %ecx
	movl	296(%rsi), %eax
	addq	$2, 136(%rsi)
	addl	%edx, %eax
	testl	%eax, %eax
	movl	%eax, 240(%rsi)
	setne	%cl
	cmpl	%edx, %eax
	sbbl	%eax, %eax
	andl	$2, %eax
	orl	%ecx, %eax
	movb	%al, 100(%rsi)
	ret
	.cfi_endproc
.LFE284:
	.size	s370_1E6D, .-s370_1E6D
	.p2align 4,,15
	.globl	s370_1E6E
	.type	s370_1E6E, @function
s370_1E6E:
.LFB285:
	.cfi_startproc
	movl	240(%rsi), %edx
	xorl	%ecx, %ecx
	movl	304(%rsi), %eax
	addq	$2, 136(%rsi)
	addl	%edx, %eax
	testl	%eax, %eax
	movl	%eax, 240(%rsi)
	setne	%cl
	cmpl	%edx, %eax
	sbbl	%eax, %eax
	andl	$2, %eax
	orl	%ecx, %eax
	movb	%al, 100(%rsi)
	ret
	.cfi_endproc
.LFE285:
	.size	s370_1E6E, .-s370_1E6E
	.p2align 4,,15
	.globl	s370_1E6F
	.type	s370_1E6F, @function
s370_1E6F:
.LFB286:
	.cfi_startproc
	movl	240(%rsi), %edx
	xorl	%ecx, %ecx
	movl	312(%rsi), %eax
	addq	$2, 136(%rsi)
	addl	%edx, %eax
	testl	%eax, %eax
	movl	%eax, 240(%rsi)
	setne	%cl
	cmpl	%edx, %eax
	sbbl	%eax, %eax
	andl	$2, %eax
	orl	%ecx, %eax
	movb	%al, 100(%rsi)
	ret
	.cfi_endproc
.LFE286:
	.size	s370_1E6F, .-s370_1E6F
	.p2align 4,,15
	.globl	s370_1E70
	.type	s370_1E70, @function
s370_1E70:
.LFB287:
	.cfi_startproc
	movl	248(%rsi), %edx
	xorl	%ecx, %ecx
	movl	192(%rsi), %eax
	addq	$2, 136(%rsi)
	addl	%edx, %eax
	testl	%eax, %eax
	movl	%eax, 248(%rsi)
	setne	%cl
	cmpl	%edx, %eax
	sbbl	%eax, %eax
	andl	$2, %eax
	orl	%ecx, %eax
	movb	%al, 100(%rsi)
	ret
	.cfi_endproc
.LFE287:
	.size	s370_1E70, .-s370_1E70
	.p2align 4,,15
	.globl	s370_1E71
	.type	s370_1E71, @function
s370_1E71:
.LFB288:
	.cfi_startproc
	movl	248(%rsi), %edx
	xorl	%ecx, %ecx
	movl	200(%rsi), %eax
	addq	$2, 136(%rsi)
	addl	%edx, %eax
	testl	%eax, %eax
	movl	%eax, 248(%rsi)
	setne	%cl
	cmpl	%edx, %eax
	sbbl	%eax, %eax
	andl	$2, %eax
	orl	%ecx, %eax
	movb	%al, 100(%rsi)
	ret
	.cfi_endproc
.LFE288:
	.size	s370_1E71, .-s370_1E71
	.p2align 4,,15
	.globl	s370_1E72
	.type	s370_1E72, @function
s370_1E72:
.LFB289:
	.cfi_startproc
	movl	248(%rsi), %edx
	xorl	%ecx, %ecx
	movl	208(%rsi), %eax
	addq	$2, 136(%rsi)
	addl	%edx, %eax
	testl	%eax, %eax
	movl	%eax, 248(%rsi)
	setne	%cl
	cmpl	%edx, %eax
	sbbl	%eax, %eax
	andl	$2, %eax
	orl	%ecx, %eax
	movb	%al, 100(%rsi)
	ret
	.cfi_endproc
.LFE289:
	.size	s370_1E72, .-s370_1E72
	.p2align 4,,15
	.globl	s370_1E73
	.type	s370_1E73, @function
s370_1E73:
.LFB290:
	.cfi_startproc
	movl	248(%rsi), %edx
	xorl	%ecx, %ecx
	movl	216(%rsi), %eax
	addq	$2, 136(%rsi)
	addl	%edx, %eax
	testl	%eax, %eax
	movl	%eax, 248(%rsi)
	setne	%cl
	cmpl	%edx, %eax
	sbbl	%eax, %eax
	andl	$2, %eax
	orl	%ecx, %eax
	movb	%al, 100(%rsi)
	ret
	.cfi_endproc
.LFE290:
	.size	s370_1E73, .-s370_1E73
	.p2align 4,,15
	.globl	s370_1E74
	.type	s370_1E74, @function
s370_1E74:
.LFB291:
	.cfi_startproc
	movl	248(%rsi), %edx
	xorl	%ecx, %ecx
	movl	224(%rsi), %eax
	addq	$2, 136(%rsi)
	addl	%edx, %eax
	testl	%eax, %eax
	movl	%eax, 248(%rsi)
	setne	%cl
	cmpl	%edx, %eax
	sbbl	%eax, %eax
	andl	$2, %eax
	orl	%ecx, %eax
	movb	%al, 100(%rsi)
	ret
	.cfi_endproc
.LFE291:
	.size	s370_1E74, .-s370_1E74
	.p2align 4,,15
	.globl	s370_1E75
	.type	s370_1E75, @function
s370_1E75:
.LFB292:
	.cfi_startproc
	movl	248(%rsi), %edx
	xorl	%ecx, %ecx
	movl	232(%rsi), %eax
	addq	$2, 136(%rsi)
	addl	%edx, %eax
	testl	%eax, %eax
	movl	%eax, 248(%rsi)
	setne	%cl
	cmpl	%edx, %eax
	sbbl	%eax, %eax
	andl	$2, %eax
	orl	%ecx, %eax
	movb	%al, 100(%rsi)
	ret
	.cfi_endproc
.LFE292:
	.size	s370_1E75, .-s370_1E75
	.p2align 4,,15
	.globl	s370_1E76
	.type	s370_1E76, @function
s370_1E76:
.LFB293:
	.cfi_startproc
	movl	248(%rsi), %edx
	xorl	%ecx, %ecx
	movl	240(%rsi), %eax
	addq	$2, 136(%rsi)
	addl	%edx, %eax
	testl	%eax, %eax
	movl	%eax, 248(%rsi)
	setne	%cl
	cmpl	%edx, %eax
	sbbl	%eax, %eax
	andl	$2, %eax
	orl	%ecx, %eax
	movb	%al, 100(%rsi)
	ret
	.cfi_endproc
.LFE293:
	.size	s370_1E76, .-s370_1E76
	.p2align 4,,15
	.globl	s370_1E77
	.type	s370_1E77, @function
s370_1E77:
.LFB294:
	.cfi_startproc
	movl	248(%rsi), %edx
	xorl	%ecx, %ecx
	addq	$2, 136(%rsi)
	leal	(%rdx,%rdx), %eax
	testl	%eax, %eax
	movl	%eax, 248(%rsi)
	setne	%cl
	cmpl	%edx, %eax
	sbbl	%eax, %eax
	andl	$2, %eax
	orl	%ecx, %eax
	movb	%al, 100(%rsi)
	ret
	.cfi_endproc
.LFE294:
	.size	s370_1E77, .-s370_1E77
	.p2align 4,,15
	.globl	s370_1E78
	.type	s370_1E78, @function
s370_1E78:
.LFB295:
	.cfi_startproc
	movl	248(%rsi), %edx
	xorl	%ecx, %ecx
	movl	256(%rsi), %eax
	addq	$2, 136(%rsi)
	addl	%edx, %eax
	testl	%eax, %eax
	movl	%eax, 248(%rsi)
	setne	%cl
	cmpl	%edx, %eax
	sbbl	%eax, %eax
	andl	$2, %eax
	orl	%ecx, %eax
	movb	%al, 100(%rsi)
	ret
	.cfi_endproc
.LFE295:
	.size	s370_1E78, .-s370_1E78
	.p2align 4,,15
	.globl	s370_1E79
	.type	s370_1E79, @function
s370_1E79:
.LFB296:
	.cfi_startproc
	movl	248(%rsi), %edx
	xorl	%ecx, %ecx
	movl	264(%rsi), %eax
	addq	$2, 136(%rsi)
	addl	%edx, %eax
	testl	%eax, %eax
	movl	%eax, 248(%rsi)
	setne	%cl
	cmpl	%edx, %eax
	sbbl	%eax, %eax
	andl	$2, %eax
	orl	%ecx, %eax
	movb	%al, 100(%rsi)
	ret
	.cfi_endproc
.LFE296:
	.size	s370_1E79, .-s370_1E79
	.p2align 4,,15
	.globl	s370_1E7A
	.type	s370_1E7A, @function
s370_1E7A:
.LFB297:
	.cfi_startproc
	movl	248(%rsi), %edx
	xorl	%ecx, %ecx
	movl	272(%rsi), %eax
	addq	$2, 136(%rsi)
	addl	%edx, %eax
	testl	%eax, %eax
	movl	%eax, 248(%rsi)
	setne	%cl
	cmpl	%edx, %eax
	sbbl	%eax, %eax
	andl	$2, %eax
	orl	%ecx, %eax
	movb	%al, 100(%rsi)
	ret
	.cfi_endproc
.LFE297:
	.size	s370_1E7A, .-s370_1E7A
	.p2align 4,,15
	.globl	s370_1E7B
	.type	s370_1E7B, @function
s370_1E7B:
.LFB298:
	.cfi_startproc
	movl	248(%rsi), %edx
	xorl	%ecx, %ecx
	movl	280(%rsi), %eax
	addq	$2, 136(%rsi)
	addl	%edx, %eax
	testl	%eax, %eax
	movl	%eax, 248(%rsi)
	setne	%cl
	cmpl	%edx, %eax
	sbbl	%eax, %eax
	andl	$2, %eax
	orl	%ecx, %eax
	movb	%al, 100(%rsi)
	ret
	.cfi_endproc
.LFE298:
	.size	s370_1E7B, .-s370_1E7B
	.p2align 4,,15
	.globl	s370_1E7C
	.type	s370_1E7C, @function
s370_1E7C:
.LFB299:
	.cfi_startproc
	movl	248(%rsi), %edx
	xorl	%ecx, %ecx
	movl	288(%rsi), %eax
	addq	$2, 136(%rsi)
	addl	%edx, %eax
	testl	%eax, %eax
	movl	%eax, 248(%rsi)
	setne	%cl
	cmpl	%edx, %eax
	sbbl	%eax, %eax
	andl	$2, %eax
	orl	%ecx, %eax
	movb	%al, 100(%rsi)
	ret
	.cfi_endproc
.LFE299:
	.size	s370_1E7C, .-s370_1E7C
	.p2align 4,,15
	.globl	s370_1E7D
	.type	s370_1E7D, @function
s370_1E7D:
.LFB300:
	.cfi_startproc
	movl	248(%rsi), %edx
	xorl	%ecx, %ecx
	movl	296(%rsi), %eax
	addq	$2, 136(%rsi)
	addl	%edx, %eax
	testl	%eax, %eax
	movl	%eax, 248(%rsi)
	setne	%cl
	cmpl	%edx, %eax
	sbbl	%eax, %eax
	andl	$2, %eax
	orl	%ecx, %eax
	movb	%al, 100(%rsi)
	ret
	.cfi_endproc
.LFE300:
	.size	s370_1E7D, .-s370_1E7D
	.p2align 4,,15
	.globl	s370_1E7E
	.type	s370_1E7E, @function
s370_1E7E:
.LFB301:
	.cfi_startproc
	movl	248(%rsi), %edx
	xorl	%ecx, %ecx
	movl	304(%rsi), %eax
	addq	$2, 136(%rsi)
	addl	%edx, %eax
	testl	%eax, %eax
	movl	%eax, 248(%rsi)
	setne	%cl
	cmpl	%edx, %eax
	sbbl	%eax, %eax
	andl	$2, %eax
	orl	%ecx, %eax
	movb	%al, 100(%rsi)
	ret
	.cfi_endproc
.LFE301:
	.size	s370_1E7E, .-s370_1E7E
	.p2align 4,,15
	.globl	s370_1E7F
	.type	s370_1E7F, @function
s370_1E7F:
.LFB302:
	.cfi_startproc
	movl	248(%rsi), %edx
	xorl	%ecx, %ecx
	movl	312(%rsi), %eax
	addq	$2, 136(%rsi)
	addl	%edx, %eax
	testl	%eax, %eax
	movl	%eax, 248(%rsi)
	setne	%cl
	cmpl	%edx, %eax
	sbbl	%eax, %eax
	andl	$2, %eax
	orl	%ecx, %eax
	movb	%al, 100(%rsi)
	ret
	.cfi_endproc
.LFE302:
	.size	s370_1E7F, .-s370_1E7F
	.p2align 4,,15
	.globl	s370_1E80
	.type	s370_1E80, @function
s370_1E80:
.LFB303:
	.cfi_startproc
	movl	256(%rsi), %edx
	xorl	%ecx, %ecx
	movl	192(%rsi), %eax
	addq	$2, 136(%rsi)
	addl	%edx, %eax
	testl	%eax, %eax
	movl	%eax, 256(%rsi)
	setne	%cl
	cmpl	%edx, %eax
	sbbl	%eax, %eax
	andl	$2, %eax
	orl	%ecx, %eax
	movb	%al, 100(%rsi)
	ret
	.cfi_endproc
.LFE303:
	.size	s370_1E80, .-s370_1E80
	.p2align 4,,15
	.globl	s370_1E81
	.type	s370_1E81, @function
s370_1E81:
.LFB304:
	.cfi_startproc
	movl	256(%rsi), %edx
	xorl	%ecx, %ecx
	movl	200(%rsi), %eax
	addq	$2, 136(%rsi)
	addl	%edx, %eax
	testl	%eax, %eax
	movl	%eax, 256(%rsi)
	setne	%cl
	cmpl	%edx, %eax
	sbbl	%eax, %eax
	andl	$2, %eax
	orl	%ecx, %eax
	movb	%al, 100(%rsi)
	ret
	.cfi_endproc
.LFE304:
	.size	s370_1E81, .-s370_1E81
	.p2align 4,,15
	.globl	s370_1E82
	.type	s370_1E82, @function
s370_1E82:
.LFB305:
	.cfi_startproc
	movl	256(%rsi), %edx
	xorl	%ecx, %ecx
	movl	208(%rsi), %eax
	addq	$2, 136(%rsi)
	addl	%edx, %eax
	testl	%eax, %eax
	movl	%eax, 256(%rsi)
	setne	%cl
	cmpl	%edx, %eax
	sbbl	%eax, %eax
	andl	$2, %eax
	orl	%ecx, %eax
	movb	%al, 100(%rsi)
	ret
	.cfi_endproc
.LFE305:
	.size	s370_1E82, .-s370_1E82
	.p2align 4,,15
	.globl	s370_1E83
	.type	s370_1E83, @function
s370_1E83:
.LFB306:
	.cfi_startproc
	movl	256(%rsi), %edx
	xorl	%ecx, %ecx
	movl	216(%rsi), %eax
	addq	$2, 136(%rsi)
	addl	%edx, %eax
	testl	%eax, %eax
	movl	%eax, 256(%rsi)
	setne	%cl
	cmpl	%edx, %eax
	sbbl	%eax, %eax
	andl	$2, %eax
	orl	%ecx, %eax
	movb	%al, 100(%rsi)
	ret
	.cfi_endproc
.LFE306:
	.size	s370_1E83, .-s370_1E83
	.p2align 4,,15
	.globl	s370_1E84
	.type	s370_1E84, @function
s370_1E84:
.LFB307:
	.cfi_startproc
	movl	256(%rsi), %edx
	xorl	%ecx, %ecx
	movl	224(%rsi), %eax
	addq	$2, 136(%rsi)
	addl	%edx, %eax
	testl	%eax, %eax
	movl	%eax, 256(%rsi)
	setne	%cl
	cmpl	%edx, %eax
	sbbl	%eax, %eax
	andl	$2, %eax
	orl	%ecx, %eax
	movb	%al, 100(%rsi)
	ret
	.cfi_endproc
.LFE307:
	.size	s370_1E84, .-s370_1E84
	.p2align 4,,15
	.globl	s370_1E85
	.type	s370_1E85, @function
s370_1E85:
.LFB308:
	.cfi_startproc
	movl	256(%rsi), %edx
	xorl	%ecx, %ecx
	movl	232(%rsi), %eax
	addq	$2, 136(%rsi)
	addl	%edx, %eax
	testl	%eax, %eax
	movl	%eax, 256(%rsi)
	setne	%cl
	cmpl	%edx, %eax
	sbbl	%eax, %eax
	andl	$2, %eax
	orl	%ecx, %eax
	movb	%al, 100(%rsi)
	ret
	.cfi_endproc
.LFE308:
	.size	s370_1E85, .-s370_1E85
	.p2align 4,,15
	.globl	s370_1E86
	.type	s370_1E86, @function
s370_1E86:
.LFB309:
	.cfi_startproc
	movl	256(%rsi), %edx
	xorl	%ecx, %ecx
	movl	240(%rsi), %eax
	addq	$2, 136(%rsi)
	addl	%edx, %eax
	testl	%eax, %eax
	movl	%eax, 256(%rsi)
	setne	%cl
	cmpl	%edx, %eax
	sbbl	%eax, %eax
	andl	$2, %eax
	orl	%ecx, %eax
	movb	%al, 100(%rsi)
	ret
	.cfi_endproc
.LFE309:
	.size	s370_1E86, .-s370_1E86
	.p2align 4,,15
	.globl	s370_1E87
	.type	s370_1E87, @function
s370_1E87:
.LFB310:
	.cfi_startproc
	movl	256(%rsi), %edx
	xorl	%ecx, %ecx
	movl	248(%rsi), %eax
	addq	$2, 136(%rsi)
	addl	%edx, %eax
	testl	%eax, %eax
	movl	%eax, 256(%rsi)
	setne	%cl
	cmpl	%edx, %eax
	sbbl	%eax, %eax
	andl	$2, %eax
	orl	%ecx, %eax
	movb	%al, 100(%rsi)
	ret
	.cfi_endproc
.LFE310:
	.size	s370_1E87, .-s370_1E87
	.p2align 4,,15
	.globl	s370_1E88
	.type	s370_1E88, @function
s370_1E88:
.LFB311:
	.cfi_startproc
	movl	256(%rsi), %edx
	xorl	%ecx, %ecx
	addq	$2, 136(%rsi)
	leal	(%rdx,%rdx), %eax
	testl	%eax, %eax
	movl	%eax, 256(%rsi)
	setne	%cl
	cmpl	%edx, %eax
	sbbl	%eax, %eax
	andl	$2, %eax
	orl	%ecx, %eax
	movb	%al, 100(%rsi)
	ret
	.cfi_endproc
.LFE311:
	.size	s370_1E88, .-s370_1E88
	.p2align 4,,15
	.globl	s370_1E89
	.type	s370_1E89, @function
s370_1E89:
.LFB312:
	.cfi_startproc
	movl	256(%rsi), %edx
	xorl	%ecx, %ecx
	movl	264(%rsi), %eax
	addq	$2, 136(%rsi)
	addl	%edx, %eax
	testl	%eax, %eax
	movl	%eax, 256(%rsi)
	setne	%cl
	cmpl	%edx, %eax
	sbbl	%eax, %eax
	andl	$2, %eax
	orl	%ecx, %eax
	movb	%al, 100(%rsi)
	ret
	.cfi_endproc
.LFE312:
	.size	s370_1E89, .-s370_1E89
	.p2align 4,,15
	.globl	s370_1E8A
	.type	s370_1E8A, @function
s370_1E8A:
.LFB313:
	.cfi_startproc
	movl	256(%rsi), %edx
	xorl	%ecx, %ecx
	movl	272(%rsi), %eax
	addq	$2, 136(%rsi)
	addl	%edx, %eax
	testl	%eax, %eax
	movl	%eax, 256(%rsi)
	setne	%cl
	cmpl	%edx, %eax
	sbbl	%eax, %eax
	andl	$2, %eax
	orl	%ecx, %eax
	movb	%al, 100(%rsi)
	ret
	.cfi_endproc
.LFE313:
	.size	s370_1E8A, .-s370_1E8A
	.p2align 4,,15
	.globl	s370_1E8B
	.type	s370_1E8B, @function
s370_1E8B:
.LFB314:
	.cfi_startproc
	movl	256(%rsi), %edx
	xorl	%ecx, %ecx
	movl	280(%rsi), %eax
	addq	$2, 136(%rsi)
	addl	%edx, %eax
	testl	%eax, %eax
	movl	%eax, 256(%rsi)
	setne	%cl
	cmpl	%edx, %eax
	sbbl	%eax, %eax
	andl	$2, %eax
	orl	%ecx, %eax
	movb	%al, 100(%rsi)
	ret
	.cfi_endproc
.LFE314:
	.size	s370_1E8B, .-s370_1E8B
	.p2align 4,,15
	.globl	s370_1E8C
	.type	s370_1E8C, @function
s370_1E8C:
.LFB315:
	.cfi_startproc
	movl	256(%rsi), %edx
	xorl	%ecx, %ecx
	movl	288(%rsi), %eax
	addq	$2, 136(%rsi)
	addl	%edx, %eax
	testl	%eax, %eax
	movl	%eax, 256(%rsi)
	setne	%cl
	cmpl	%edx, %eax
	sbbl	%eax, %eax
	andl	$2, %eax
	orl	%ecx, %eax
	movb	%al, 100(%rsi)
	ret
	.cfi_endproc
.LFE315:
	.size	s370_1E8C, .-s370_1E8C
	.p2align 4,,15
	.globl	s370_1E8D
	.type	s370_1E8D, @function
s370_1E8D:
.LFB316:
	.cfi_startproc
	movl	256(%rsi), %edx
	xorl	%ecx, %ecx
	movl	296(%rsi), %eax
	addq	$2, 136(%rsi)
	addl	%edx, %eax
	testl	%eax, %eax
	movl	%eax, 256(%rsi)
	setne	%cl
	cmpl	%edx, %eax
	sbbl	%eax, %eax
	andl	$2, %eax
	orl	%ecx, %eax
	movb	%al, 100(%rsi)
	ret
	.cfi_endproc
.LFE316:
	.size	s370_1E8D, .-s370_1E8D
	.p2align 4,,15
	.globl	s370_1E8E
	.type	s370_1E8E, @function
s370_1E8E:
.LFB317:
	.cfi_startproc
	movl	256(%rsi), %edx
	xorl	%ecx, %ecx
	movl	304(%rsi), %eax
	addq	$2, 136(%rsi)
	addl	%edx, %eax
	testl	%eax, %eax
	movl	%eax, 256(%rsi)
	setne	%cl
	cmpl	%edx, %eax
	sbbl	%eax, %eax
	andl	$2, %eax
	orl	%ecx, %eax
	movb	%al, 100(%rsi)
	ret
	.cfi_endproc
.LFE317:
	.size	s370_1E8E, .-s370_1E8E
	.p2align 4,,15
	.globl	s370_1E8F
	.type	s370_1E8F, @function
s370_1E8F:
.LFB318:
	.cfi_startproc
	movl	256(%rsi), %edx
	xorl	%ecx, %ecx
	movl	312(%rsi), %eax
	addq	$2, 136(%rsi)
	addl	%edx, %eax
	testl	%eax, %eax
	movl	%eax, 256(%rsi)
	setne	%cl
	cmpl	%edx, %eax
	sbbl	%eax, %eax
	andl	$2, %eax
	orl	%ecx, %eax
	movb	%al, 100(%rsi)
	ret
	.cfi_endproc
.LFE318:
	.size	s370_1E8F, .-s370_1E8F
	.p2align 4,,15
	.globl	s370_1E90
	.type	s370_1E90, @function
s370_1E90:
.LFB319:
	.cfi_startproc
	movl	264(%rsi), %edx
	xorl	%ecx, %ecx
	movl	192(%rsi), %eax
	addq	$2, 136(%rsi)
	addl	%edx, %eax
	testl	%eax, %eax
	movl	%eax, 264(%rsi)
	setne	%cl
	cmpl	%edx, %eax
	sbbl	%eax, %eax
	andl	$2, %eax
	orl	%ecx, %eax
	movb	%al, 100(%rsi)
	ret
	.cfi_endproc
.LFE319:
	.size	s370_1E90, .-s370_1E90
	.p2align 4,,15
	.globl	s370_1E91
	.type	s370_1E91, @function
s370_1E91:
.LFB320:
	.cfi_startproc
	movl	264(%rsi), %edx
	xorl	%ecx, %ecx
	movl	200(%rsi), %eax
	addq	$2, 136(%rsi)
	addl	%edx, %eax
	testl	%eax, %eax
	movl	%eax, 264(%rsi)
	setne	%cl
	cmpl	%edx, %eax
	sbbl	%eax, %eax
	andl	$2, %eax
	orl	%ecx, %eax
	movb	%al, 100(%rsi)
	ret
	.cfi_endproc
.LFE320:
	.size	s370_1E91, .-s370_1E91
	.p2align 4,,15
	.globl	s370_1E92
	.type	s370_1E92, @function
s370_1E92:
.LFB321:
	.cfi_startproc
	movl	264(%rsi), %edx
	xorl	%ecx, %ecx
	movl	208(%rsi), %eax
	addq	$2, 136(%rsi)
	addl	%edx, %eax
	testl	%eax, %eax
	movl	%eax, 264(%rsi)
	setne	%cl
	cmpl	%edx, %eax
	sbbl	%eax, %eax
	andl	$2, %eax
	orl	%ecx, %eax
	movb	%al, 100(%rsi)
	ret
	.cfi_endproc
.LFE321:
	.size	s370_1E92, .-s370_1E92
	.p2align 4,,15
	.globl	s370_1E93
	.type	s370_1E93, @function
s370_1E93:
.LFB322:
	.cfi_startproc
	movl	264(%rsi), %edx
	xorl	%ecx, %ecx
	movl	216(%rsi), %eax
	addq	$2, 136(%rsi)
	addl	%edx, %eax
	testl	%eax, %eax
	movl	%eax, 264(%rsi)
	setne	%cl
	cmpl	%edx, %eax
	sbbl	%eax, %eax
	andl	$2, %eax
	orl	%ecx, %eax
	movb	%al, 100(%rsi)
	ret
	.cfi_endproc
.LFE322:
	.size	s370_1E93, .-s370_1E93
	.p2align 4,,15
	.globl	s370_1E94
	.type	s370_1E94, @function
s370_1E94:
.LFB323:
	.cfi_startproc
	movl	264(%rsi), %edx
	xorl	%ecx, %ecx
	movl	224(%rsi), %eax
	addq	$2, 136(%rsi)
	addl	%edx, %eax
	testl	%eax, %eax
	movl	%eax, 264(%rsi)
	setne	%cl
	cmpl	%edx, %eax
	sbbl	%eax, %eax
	andl	$2, %eax
	orl	%ecx, %eax
	movb	%al, 100(%rsi)
	ret
	.cfi_endproc
.LFE323:
	.size	s370_1E94, .-s370_1E94
	.p2align 4,,15
	.globl	s370_1E95
	.type	s370_1E95, @function
s370_1E95:
.LFB324:
	.cfi_startproc
	movl	264(%rsi), %edx
	xorl	%ecx, %ecx
	movl	232(%rsi), %eax
	addq	$2, 136(%rsi)
	addl	%edx, %eax
	testl	%eax, %eax
	movl	%eax, 264(%rsi)
	setne	%cl
	cmpl	%edx, %eax
	sbbl	%eax, %eax
	andl	$2, %eax
	orl	%ecx, %eax
	movb	%al, 100(%rsi)
	ret
	.cfi_endproc
.LFE324:
	.size	s370_1E95, .-s370_1E95
	.p2align 4,,15
	.globl	s370_1E96
	.type	s370_1E96, @function
s370_1E96:
.LFB325:
	.cfi_startproc
	movl	264(%rsi), %edx
	xorl	%ecx, %ecx
	movl	240(%rsi), %eax
	addq	$2, 136(%rsi)
	addl	%edx, %eax
	testl	%eax, %eax
	movl	%eax, 264(%rsi)
	setne	%cl
	cmpl	%edx, %eax
	sbbl	%eax, %eax
	andl	$2, %eax
	orl	%ecx, %eax
	movb	%al, 100(%rsi)
	ret
	.cfi_endproc
.LFE325:
	.size	s370_1E96, .-s370_1E96
	.p2align 4,,15
	.globl	s370_1E97
	.type	s370_1E97, @function
s370_1E97:
.LFB326:
	.cfi_startproc
	movl	264(%rsi), %edx
	xorl	%ecx, %ecx
	movl	248(%rsi), %eax
	addq	$2, 136(%rsi)
	addl	%edx, %eax
	testl	%eax, %eax
	movl	%eax, 264(%rsi)
	setne	%cl
	cmpl	%edx, %eax
	sbbl	%eax, %eax
	andl	$2, %eax
	orl	%ecx, %eax
	movb	%al, 100(%rsi)
	ret
	.cfi_endproc
.LFE326:
	.size	s370_1E97, .-s370_1E97
	.p2align 4,,15
	.globl	s370_1E98
	.type	s370_1E98, @function
s370_1E98:
.LFB327:
	.cfi_startproc
	movl	264(%rsi), %edx
	xorl	%ecx, %ecx
	movl	256(%rsi), %eax
	addq	$2, 136(%rsi)
	addl	%edx, %eax
	testl	%eax, %eax
	movl	%eax, 264(%rsi)
	setne	%cl
	cmpl	%edx, %eax
	sbbl	%eax, %eax
	andl	$2, %eax
	orl	%ecx, %eax
	movb	%al, 100(%rsi)
	ret
	.cfi_endproc
.LFE327:
	.size	s370_1E98, .-s370_1E98
	.p2align 4,,15
	.globl	s370_1E99
	.type	s370_1E99, @function
s370_1E99:
.LFB328:
	.cfi_startproc
	movl	264(%rsi), %edx
	xorl	%ecx, %ecx
	addq	$2, 136(%rsi)
	leal	(%rdx,%rdx), %eax
	testl	%eax, %eax
	movl	%eax, 264(%rsi)
	setne	%cl
	cmpl	%edx, %eax
	sbbl	%eax, %eax
	andl	$2, %eax
	orl	%ecx, %eax
	movb	%al, 100(%rsi)
	ret
	.cfi_endproc
.LFE328:
	.size	s370_1E99, .-s370_1E99
	.p2align 4,,15
	.globl	s370_1E9A
	.type	s370_1E9A, @function
s370_1E9A:
.LFB329:
	.cfi_startproc
	movl	264(%rsi), %edx
	xorl	%ecx, %ecx
	movl	272(%rsi), %eax
	addq	$2, 136(%rsi)
	addl	%edx, %eax
	testl	%eax, %eax
	movl	%eax, 264(%rsi)
	setne	%cl
	cmpl	%edx, %eax
	sbbl	%eax, %eax
	andl	$2, %eax
	orl	%ecx, %eax
	movb	%al, 100(%rsi)
	ret
	.cfi_endproc
.LFE329:
	.size	s370_1E9A, .-s370_1E9A
	.p2align 4,,15
	.globl	s370_1E9B
	.type	s370_1E9B, @function
s370_1E9B:
.LFB330:
	.cfi_startproc
	movl	264(%rsi), %edx
	xorl	%ecx, %ecx
	movl	280(%rsi), %eax
	addq	$2, 136(%rsi)
	addl	%edx, %eax
	testl	%eax, %eax
	movl	%eax, 264(%rsi)
	setne	%cl
	cmpl	%edx, %eax
	sbbl	%eax, %eax
	andl	$2, %eax
	orl	%ecx, %eax
	movb	%al, 100(%rsi)
	ret
	.cfi_endproc
.LFE330:
	.size	s370_1E9B, .-s370_1E9B
	.p2align 4,,15
	.globl	s370_1E9C
	.type	s370_1E9C, @function
s370_1E9C:
.LFB331:
	.cfi_startproc
	movl	264(%rsi), %edx
	xorl	%ecx, %ecx
	movl	288(%rsi), %eax
	addq	$2, 136(%rsi)
	addl	%edx, %eax
	testl	%eax, %eax
	movl	%eax, 264(%rsi)
	setne	%cl
	cmpl	%edx, %eax
	sbbl	%eax, %eax
	andl	$2, %eax
	orl	%ecx, %eax
	movb	%al, 100(%rsi)
	ret
	.cfi_endproc
.LFE331:
	.size	s370_1E9C, .-s370_1E9C
	.p2align 4,,15
	.globl	s370_1E9D
	.type	s370_1E9D, @function
s370_1E9D:
.LFB332:
	.cfi_startproc
	movl	264(%rsi), %edx
	xorl	%ecx, %ecx
	movl	296(%rsi), %eax
	addq	$2, 136(%rsi)
	addl	%edx, %eax
	testl	%eax, %eax
	movl	%eax, 264(%rsi)
	setne	%cl
	cmpl	%edx, %eax
	sbbl	%eax, %eax
	andl	$2, %eax
	orl	%ecx, %eax
	movb	%al, 100(%rsi)
	ret
	.cfi_endproc
.LFE332:
	.size	s370_1E9D, .-s370_1E9D
	.p2align 4,,15
	.globl	s370_1E9E
	.type	s370_1E9E, @function
s370_1E9E:
.LFB333:
	.cfi_startproc
	movl	264(%rsi), %edx
	xorl	%ecx, %ecx
	movl	304(%rsi), %eax
	addq	$2, 136(%rsi)
	addl	%edx, %eax
	testl	%eax, %eax
	movl	%eax, 264(%rsi)
	setne	%cl
	cmpl	%edx, %eax
	sbbl	%eax, %eax
	andl	$2, %eax
	orl	%ecx, %eax
	movb	%al, 100(%rsi)
	ret
	.cfi_endproc
.LFE333:
	.size	s370_1E9E, .-s370_1E9E
	.p2align 4,,15
	.globl	s370_1E9F
	.type	s370_1E9F, @function
s370_1E9F:
.LFB334:
	.cfi_startproc
	movl	264(%rsi), %edx
	xorl	%ecx, %ecx
	movl	312(%rsi), %eax
	addq	$2, 136(%rsi)
	addl	%edx, %eax
	testl	%eax, %eax
	movl	%eax, 264(%rsi)
	setne	%cl
	cmpl	%edx, %eax
	sbbl	%eax, %eax
	andl	$2, %eax
	orl	%ecx, %eax
	movb	%al, 100(%rsi)
	ret
	.cfi_endproc
.LFE334:
	.size	s370_1E9F, .-s370_1E9F
	.p2align 4,,15
	.globl	s370_1EA0
	.type	s370_1EA0, @function
s370_1EA0:
.LFB335:
	.cfi_startproc
	movl	272(%rsi), %edx
	xorl	%ecx, %ecx
	movl	192(%rsi), %eax
	addq	$2, 136(%rsi)
	addl	%edx, %eax
	testl	%eax, %eax
	movl	%eax, 272(%rsi)
	setne	%cl
	cmpl	%edx, %eax
	sbbl	%eax, %eax
	andl	$2, %eax
	orl	%ecx, %eax
	movb	%al, 100(%rsi)
	ret
	.cfi_endproc
.LFE335:
	.size	s370_1EA0, .-s370_1EA0
	.p2align 4,,15
	.globl	s370_1EA1
	.type	s370_1EA1, @function
s370_1EA1:
.LFB336:
	.cfi_startproc
	movl	272(%rsi), %edx
	xorl	%ecx, %ecx
	movl	200(%rsi), %eax
	addq	$2, 136(%rsi)
	addl	%edx, %eax
	testl	%eax, %eax
	movl	%eax, 272(%rsi)
	setne	%cl
	cmpl	%edx, %eax
	sbbl	%eax, %eax
	andl	$2, %eax
	orl	%ecx, %eax
	movb	%al, 100(%rsi)
	ret
	.cfi_endproc
.LFE336:
	.size	s370_1EA1, .-s370_1EA1
	.p2align 4,,15
	.globl	s370_1EA2
	.type	s370_1EA2, @function
s370_1EA2:
.LFB337:
	.cfi_startproc
	movl	272(%rsi), %edx
	xorl	%ecx, %ecx
	movl	208(%rsi), %eax
	addq	$2, 136(%rsi)
	addl	%edx, %eax
	testl	%eax, %eax
	movl	%eax, 272(%rsi)
	setne	%cl
	cmpl	%edx, %eax
	sbbl	%eax, %eax
	andl	$2, %eax
	orl	%ecx, %eax
	movb	%al, 100(%rsi)
	ret
	.cfi_endproc
.LFE337:
	.size	s370_1EA2, .-s370_1EA2
	.p2align 4,,15
	.globl	s370_1EA3
	.type	s370_1EA3, @function
s370_1EA3:
.LFB338:
	.cfi_startproc
	movl	272(%rsi), %edx
	xorl	%ecx, %ecx
	movl	216(%rsi), %eax
	addq	$2, 136(%rsi)
	addl	%edx, %eax
	testl	%eax, %eax
	movl	%eax, 272(%rsi)
	setne	%cl
	cmpl	%edx, %eax
	sbbl	%eax, %eax
	andl	$2, %eax
	orl	%ecx, %eax
	movb	%al, 100(%rsi)
	ret
	.cfi_endproc
.LFE338:
	.size	s370_1EA3, .-s370_1EA3
	.p2align 4,,15
	.globl	s370_1EA4
	.type	s370_1EA4, @function
s370_1EA4:
.LFB339:
	.cfi_startproc
	movl	272(%rsi), %edx
	xorl	%ecx, %ecx
	movl	224(%rsi), %eax
	addq	$2, 136(%rsi)
	addl	%edx, %eax
	testl	%eax, %eax
	movl	%eax, 272(%rsi)
	setne	%cl
	cmpl	%edx, %eax
	sbbl	%eax, %eax
	andl	$2, %eax
	orl	%ecx, %eax
	movb	%al, 100(%rsi)
	ret
	.cfi_endproc
.LFE339:
	.size	s370_1EA4, .-s370_1EA4
	.p2align 4,,15
	.globl	s370_1EA5
	.type	s370_1EA5, @function
s370_1EA5:
.LFB340:
	.cfi_startproc
	movl	272(%rsi), %edx
	xorl	%ecx, %ecx
	movl	232(%rsi), %eax
	addq	$2, 136(%rsi)
	addl	%edx, %eax
	testl	%eax, %eax
	movl	%eax, 272(%rsi)
	setne	%cl
	cmpl	%edx, %eax
	sbbl	%eax, %eax
	andl	$2, %eax
	orl	%ecx, %eax
	movb	%al, 100(%rsi)
	ret
	.cfi_endproc
.LFE340:
	.size	s370_1EA5, .-s370_1EA5
	.p2align 4,,15
	.globl	s370_1EA6
	.type	s370_1EA6, @function
s370_1EA6:
.LFB341:
	.cfi_startproc
	movl	272(%rsi), %edx
	xorl	%ecx, %ecx
	movl	240(%rsi), %eax
	addq	$2, 136(%rsi)
	addl	%edx, %eax
	testl	%eax, %eax
	movl	%eax, 272(%rsi)
	setne	%cl
	cmpl	%edx, %eax
	sbbl	%eax, %eax
	andl	$2, %eax
	orl	%ecx, %eax
	movb	%al, 100(%rsi)
	ret
	.cfi_endproc
.LFE341:
	.size	s370_1EA6, .-s370_1EA6
	.p2align 4,,15
	.globl	s370_1EA7
	.type	s370_1EA7, @function
s370_1EA7:
.LFB342:
	.cfi_startproc
	movl	272(%rsi), %edx
	xorl	%ecx, %ecx
	movl	248(%rsi), %eax
	addq	$2, 136(%rsi)
	addl	%edx, %eax
	testl	%eax, %eax
	movl	%eax, 272(%rsi)
	setne	%cl
	cmpl	%edx, %eax
	sbbl	%eax, %eax
	andl	$2, %eax
	orl	%ecx, %eax
	movb	%al, 100(%rsi)
	ret
	.cfi_endproc
.LFE342:
	.size	s370_1EA7, .-s370_1EA7
	.p2align 4,,15
	.globl	s370_1EA8
	.type	s370_1EA8, @function
s370_1EA8:
.LFB343:
	.cfi_startproc
	movl	272(%rsi), %edx
	xorl	%ecx, %ecx
	movl	256(%rsi), %eax
	addq	$2, 136(%rsi)
	addl	%edx, %eax
	testl	%eax, %eax
	movl	%eax, 272(%rsi)
	setne	%cl
	cmpl	%edx, %eax
	sbbl	%eax, %eax
	andl	$2, %eax
	orl	%ecx, %eax
	movb	%al, 100(%rsi)
	ret
	.cfi_endproc
.LFE343:
	.size	s370_1EA8, .-s370_1EA8
	.p2align 4,,15
	.globl	s370_1EA9
	.type	s370_1EA9, @function
s370_1EA9:
.LFB344:
	.cfi_startproc
	movl	272(%rsi), %edx
	xorl	%ecx, %ecx
	movl	264(%rsi), %eax
	addq	$2, 136(%rsi)
	addl	%edx, %eax
	testl	%eax, %eax
	movl	%eax, 272(%rsi)
	setne	%cl
	cmpl	%edx, %eax
	sbbl	%eax, %eax
	andl	$2, %eax
	orl	%ecx, %eax
	movb	%al, 100(%rsi)
	ret
	.cfi_endproc
.LFE344:
	.size	s370_1EA9, .-s370_1EA9
	.p2align 4,,15
	.globl	s370_1EAA
	.type	s370_1EAA, @function
s370_1EAA:
.LFB345:
	.cfi_startproc
	movl	272(%rsi), %edx
	xorl	%ecx, %ecx
	addq	$2, 136(%rsi)
	leal	(%rdx,%rdx), %eax
	testl	%eax, %eax
	movl	%eax, 272(%rsi)
	setne	%cl
	cmpl	%edx, %eax
	sbbl	%eax, %eax
	andl	$2, %eax
	orl	%ecx, %eax
	movb	%al, 100(%rsi)
	ret
	.cfi_endproc
.LFE345:
	.size	s370_1EAA, .-s370_1EAA
	.p2align 4,,15
	.globl	s370_1EAB
	.type	s370_1EAB, @function
s370_1EAB:
.LFB346:
	.cfi_startproc
	movl	272(%rsi), %edx
	xorl	%ecx, %ecx
	movl	280(%rsi), %eax
	addq	$2, 136(%rsi)
	addl	%edx, %eax
	testl	%eax, %eax
	movl	%eax, 272(%rsi)
	setne	%cl
	cmpl	%edx, %eax
	sbbl	%eax, %eax
	andl	$2, %eax
	orl	%ecx, %eax
	movb	%al, 100(%rsi)
	ret
	.cfi_endproc
.LFE346:
	.size	s370_1EAB, .-s370_1EAB
	.p2align 4,,15
	.globl	s370_1EAC
	.type	s370_1EAC, @function
s370_1EAC:
.LFB347:
	.cfi_startproc
	movl	272(%rsi), %edx
	xorl	%ecx, %ecx
	movl	288(%rsi), %eax
	addq	$2, 136(%rsi)
	addl	%edx, %eax
	testl	%eax, %eax
	movl	%eax, 272(%rsi)
	setne	%cl
	cmpl	%edx, %eax
	sbbl	%eax, %eax
	andl	$2, %eax
	orl	%ecx, %eax
	movb	%al, 100(%rsi)
	ret
	.cfi_endproc
.LFE347:
	.size	s370_1EAC, .-s370_1EAC
	.p2align 4,,15
	.globl	s370_1EAD
	.type	s370_1EAD, @function
s370_1EAD:
.LFB348:
	.cfi_startproc
	movl	272(%rsi), %edx
	xorl	%ecx, %ecx
	movl	296(%rsi), %eax
	addq	$2, 136(%rsi)
	addl	%edx, %eax
	testl	%eax, %eax
	movl	%eax, 272(%rsi)
	setne	%cl
	cmpl	%edx, %eax
	sbbl	%eax, %eax
	andl	$2, %eax
	orl	%ecx, %eax
	movb	%al, 100(%rsi)
	ret
	.cfi_endproc
.LFE348:
	.size	s370_1EAD, .-s370_1EAD
	.p2align 4,,15
	.globl	s370_1EAE
	.type	s370_1EAE, @function
s370_1EAE:
.LFB349:
	.cfi_startproc
	movl	272(%rsi), %edx
	xorl	%ecx, %ecx
	movl	304(%rsi), %eax
	addq	$2, 136(%rsi)
	addl	%edx, %eax
	testl	%eax, %eax
	movl	%eax, 272(%rsi)
	setne	%cl
	cmpl	%edx, %eax
	sbbl	%eax, %eax
	andl	$2, %eax
	orl	%ecx, %eax
	movb	%al, 100(%rsi)
	ret
	.cfi_endproc
.LFE349:
	.size	s370_1EAE, .-s370_1EAE
	.p2align 4,,15
	.globl	s370_1EAF
	.type	s370_1EAF, @function
s370_1EAF:
.LFB350:
	.cfi_startproc
	movl	272(%rsi), %edx
	xorl	%ecx, %ecx
	movl	312(%rsi), %eax
	addq	$2, 136(%rsi)
	addl	%edx, %eax
	testl	%eax, %eax
	movl	%eax, 272(%rsi)
	setne	%cl
	cmpl	%edx, %eax
	sbbl	%eax, %eax
	andl	$2, %eax
	orl	%ecx, %eax
	movb	%al, 100(%rsi)
	ret
	.cfi_endproc
.LFE350:
	.size	s370_1EAF, .-s370_1EAF
	.p2align 4,,15
	.globl	s370_1EB0
	.type	s370_1EB0, @function
s370_1EB0:
.LFB351:
	.cfi_startproc
	movl	280(%rsi), %edx
	xorl	%ecx, %ecx
	movl	192(%rsi), %eax
	addq	$2, 136(%rsi)
	addl	%edx, %eax
	testl	%eax, %eax
	movl	%eax, 280(%rsi)
	setne	%cl
	cmpl	%edx, %eax
	sbbl	%eax, %eax
	andl	$2, %eax
	orl	%ecx, %eax
	movb	%al, 100(%rsi)
	ret
	.cfi_endproc
.LFE351:
	.size	s370_1EB0, .-s370_1EB0
	.p2align 4,,15
	.globl	s370_1EB1
	.type	s370_1EB1, @function
s370_1EB1:
.LFB352:
	.cfi_startproc
	movl	280(%rsi), %edx
	xorl	%ecx, %ecx
	movl	200(%rsi), %eax
	addq	$2, 136(%rsi)
	addl	%edx, %eax
	testl	%eax, %eax
	movl	%eax, 280(%rsi)
	setne	%cl
	cmpl	%edx, %eax
	sbbl	%eax, %eax
	andl	$2, %eax
	orl	%ecx, %eax
	movb	%al, 100(%rsi)
	ret
	.cfi_endproc
.LFE352:
	.size	s370_1EB1, .-s370_1EB1
	.p2align 4,,15
	.globl	s370_1EB2
	.type	s370_1EB2, @function
s370_1EB2:
.LFB353:
	.cfi_startproc
	movl	280(%rsi), %edx
	xorl	%ecx, %ecx
	movl	208(%rsi), %eax
	addq	$2, 136(%rsi)
	addl	%edx, %eax
	testl	%eax, %eax
	movl	%eax, 280(%rsi)
	setne	%cl
	cmpl	%edx, %eax
	sbbl	%eax, %eax
	andl	$2, %eax
	orl	%ecx, %eax
	movb	%al, 100(%rsi)
	ret
	.cfi_endproc
.LFE353:
	.size	s370_1EB2, .-s370_1EB2
	.p2align 4,,15
	.globl	s370_1EB3
	.type	s370_1EB3, @function
s370_1EB3:
.LFB354:
	.cfi_startproc
	movl	280(%rsi), %edx
	xorl	%ecx, %ecx
	movl	216(%rsi), %eax
	addq	$2, 136(%rsi)
	addl	%edx, %eax
	testl	%eax, %eax
	movl	%eax, 280(%rsi)
	setne	%cl
	cmpl	%edx, %eax
	sbbl	%eax, %eax
	andl	$2, %eax
	orl	%ecx, %eax
	movb	%al, 100(%rsi)
	ret
	.cfi_endproc
.LFE354:
	.size	s370_1EB3, .-s370_1EB3
	.p2align 4,,15
	.globl	s370_1EB4
	.type	s370_1EB4, @function
s370_1EB4:
.LFB355:
	.cfi_startproc
	movl	280(%rsi), %edx
	xorl	%ecx, %ecx
	movl	224(%rsi), %eax
	addq	$2, 136(%rsi)
	addl	%edx, %eax
	testl	%eax, %eax
	movl	%eax, 280(%rsi)
	setne	%cl
	cmpl	%edx, %eax
	sbbl	%eax, %eax
	andl	$2, %eax
	orl	%ecx, %eax
	movb	%al, 100(%rsi)
	ret
	.cfi_endproc
.LFE355:
	.size	s370_1EB4, .-s370_1EB4
	.p2align 4,,15
	.globl	s370_1EB5
	.type	s370_1EB5, @function
s370_1EB5:
.LFB356:
	.cfi_startproc
	movl	280(%rsi), %edx
	xorl	%ecx, %ecx
	movl	232(%rsi), %eax
	addq	$2, 136(%rsi)
	addl	%edx, %eax
	testl	%eax, %eax
	movl	%eax, 280(%rsi)
	setne	%cl
	cmpl	%edx, %eax
	sbbl	%eax, %eax
	andl	$2, %eax
	orl	%ecx, %eax
	movb	%al, 100(%rsi)
	ret
	.cfi_endproc
.LFE356:
	.size	s370_1EB5, .-s370_1EB5
	.p2align 4,,15
	.globl	s370_1EB6
	.type	s370_1EB6, @function
s370_1EB6:
.LFB357:
	.cfi_startproc
	movl	280(%rsi), %edx
	xorl	%ecx, %ecx
	movl	240(%rsi), %eax
	addq	$2, 136(%rsi)
	addl	%edx, %eax
	testl	%eax, %eax
	movl	%eax, 280(%rsi)
	setne	%cl
	cmpl	%edx, %eax
	sbbl	%eax, %eax
	andl	$2, %eax
	orl	%ecx, %eax
	movb	%al, 100(%rsi)
	ret
	.cfi_endproc
.LFE357:
	.size	s370_1EB6, .-s370_1EB6
	.p2align 4,,15
	.globl	s370_1EB7
	.type	s370_1EB7, @function
s370_1EB7:
.LFB358:
	.cfi_startproc
	movl	280(%rsi), %edx
	xorl	%ecx, %ecx
	movl	248(%rsi), %eax
	addq	$2, 136(%rsi)
	addl	%edx, %eax
	testl	%eax, %eax
	movl	%eax, 280(%rsi)
	setne	%cl
	cmpl	%edx, %eax
	sbbl	%eax, %eax
	andl	$2, %eax
	orl	%ecx, %eax
	movb	%al, 100(%rsi)
	ret
	.cfi_endproc
.LFE358:
	.size	s370_1EB7, .-s370_1EB7
	.p2align 4,,15
	.globl	s370_1EB8
	.type	s370_1EB8, @function
s370_1EB8:
.LFB359:
	.cfi_startproc
	movl	280(%rsi), %edx
	xorl	%ecx, %ecx
	movl	256(%rsi), %eax
	addq	$2, 136(%rsi)
	addl	%edx, %eax
	testl	%eax, %eax
	movl	%eax, 280(%rsi)
	setne	%cl
	cmpl	%edx, %eax
	sbbl	%eax, %eax
	andl	$2, %eax
	orl	%ecx, %eax
	movb	%al, 100(%rsi)
	ret
	.cfi_endproc
.LFE359:
	.size	s370_1EB8, .-s370_1EB8
	.p2align 4,,15
	.globl	s370_1EB9
	.type	s370_1EB9, @function
s370_1EB9:
.LFB360:
	.cfi_startproc
	movl	280(%rsi), %edx
	xorl	%ecx, %ecx
	movl	264(%rsi), %eax
	addq	$2, 136(%rsi)
	addl	%edx, %eax
	testl	%eax, %eax
	movl	%eax, 280(%rsi)
	setne	%cl
	cmpl	%edx, %eax
	sbbl	%eax, %eax
	andl	$2, %eax
	orl	%ecx, %eax
	movb	%al, 100(%rsi)
	ret
	.cfi_endproc
.LFE360:
	.size	s370_1EB9, .-s370_1EB9
	.p2align 4,,15
	.globl	s370_1EBA
	.type	s370_1EBA, @function
s370_1EBA:
.LFB361:
	.cfi_startproc
	movl	280(%rsi), %edx
	xorl	%ecx, %ecx
	movl	272(%rsi), %eax
	addq	$2, 136(%rsi)
	addl	%edx, %eax
	testl	%eax, %eax
	movl	%eax, 280(%rsi)
	setne	%cl
	cmpl	%edx, %eax
	sbbl	%eax, %eax
	andl	$2, %eax
	orl	%ecx, %eax
	movb	%al, 100(%rsi)
	ret
	.cfi_endproc
.LFE361:
	.size	s370_1EBA, .-s370_1EBA
	.p2align 4,,15
	.globl	s370_1EBB
	.type	s370_1EBB, @function
s370_1EBB:
.LFB362:
	.cfi_startproc
	movl	280(%rsi), %edx
	xorl	%ecx, %ecx
	addq	$2, 136(%rsi)
	leal	(%rdx,%rdx), %eax
	testl	%eax, %eax
	movl	%eax, 280(%rsi)
	setne	%cl
	cmpl	%edx, %eax
	sbbl	%eax, %eax
	andl	$2, %eax
	orl	%ecx, %eax
	movb	%al, 100(%rsi)
	ret
	.cfi_endproc
.LFE362:
	.size	s370_1EBB, .-s370_1EBB
	.p2align 4,,15
	.globl	s370_1EBC
	.type	s370_1EBC, @function
s370_1EBC:
.LFB363:
	.cfi_startproc
	movl	280(%rsi), %edx
	xorl	%ecx, %ecx
	movl	288(%rsi), %eax
	addq	$2, 136(%rsi)
	addl	%edx, %eax
	testl	%eax, %eax
	movl	%eax, 280(%rsi)
	setne	%cl
	cmpl	%edx, %eax
	sbbl	%eax, %eax
	andl	$2, %eax
	orl	%ecx, %eax
	movb	%al, 100(%rsi)
	ret
	.cfi_endproc
.LFE363:
	.size	s370_1EBC, .-s370_1EBC
	.p2align 4,,15
	.globl	s370_1EBD
	.type	s370_1EBD, @function
s370_1EBD:
.LFB364:
	.cfi_startproc
	movl	280(%rsi), %edx
	xorl	%ecx, %ecx
	movl	296(%rsi), %eax
	addq	$2, 136(%rsi)
	addl	%edx, %eax
	testl	%eax, %eax
	movl	%eax, 280(%rsi)
	setne	%cl
	cmpl	%edx, %eax
	sbbl	%eax, %eax
	andl	$2, %eax
	orl	%ecx, %eax
	movb	%al, 100(%rsi)
	ret
	.cfi_endproc
.LFE364:
	.size	s370_1EBD, .-s370_1EBD
	.p2align 4,,15
	.globl	s370_1EBE
	.type	s370_1EBE, @function
s370_1EBE:
.LFB365:
	.cfi_startproc
	movl	280(%rsi), %edx
	xorl	%ecx, %ecx
	movl	304(%rsi), %eax
	addq	$2, 136(%rsi)
	addl	%edx, %eax
	testl	%eax, %eax
	movl	%eax, 280(%rsi)
	setne	%cl
	cmpl	%edx, %eax
	sbbl	%eax, %eax
	andl	$2, %eax
	orl	%ecx, %eax
	movb	%al, 100(%rsi)
	ret
	.cfi_endproc
.LFE365:
	.size	s370_1EBE, .-s370_1EBE
	.p2align 4,,15
	.globl	s370_1EBF
	.type	s370_1EBF, @function
s370_1EBF:
.LFB366:
	.cfi_startproc
	movl	280(%rsi), %edx
	xorl	%ecx, %ecx
	movl	312(%rsi), %eax
	addq	$2, 136(%rsi)
	addl	%edx, %eax
	testl	%eax, %eax
	movl	%eax, 280(%rsi)
	setne	%cl
	cmpl	%edx, %eax
	sbbl	%eax, %eax
	andl	$2, %eax
	orl	%ecx, %eax
	movb	%al, 100(%rsi)
	ret
	.cfi_endproc
.LFE366:
	.size	s370_1EBF, .-s370_1EBF
	.p2align 4,,15
	.globl	s370_1EC0
	.type	s370_1EC0, @function
s370_1EC0:
.LFB367:
	.cfi_startproc
	movl	288(%rsi), %edx
	xorl	%ecx, %ecx
	movl	192(%rsi), %eax
	addq	$2, 136(%rsi)
	addl	%edx, %eax
	testl	%eax, %eax
	movl	%eax, 288(%rsi)
	setne	%cl
	cmpl	%edx, %eax
	sbbl	%eax, %eax
	andl	$2, %eax
	orl	%ecx, %eax
	movb	%al, 100(%rsi)
	ret
	.cfi_endproc
.LFE367:
	.size	s370_1EC0, .-s370_1EC0
	.p2align 4,,15
	.globl	s370_1EC1
	.type	s370_1EC1, @function
s370_1EC1:
.LFB368:
	.cfi_startproc
	movl	288(%rsi), %edx
	xorl	%ecx, %ecx
	movl	200(%rsi), %eax
	addq	$2, 136(%rsi)
	addl	%edx, %eax
	testl	%eax, %eax
	movl	%eax, 288(%rsi)
	setne	%cl
	cmpl	%edx, %eax
	sbbl	%eax, %eax
	andl	$2, %eax
	orl	%ecx, %eax
	movb	%al, 100(%rsi)
	ret
	.cfi_endproc
.LFE368:
	.size	s370_1EC1, .-s370_1EC1
	.p2align 4,,15
	.globl	s370_1EC2
	.type	s370_1EC2, @function
s370_1EC2:
.LFB369:
	.cfi_startproc
	movl	288(%rsi), %edx
	xorl	%ecx, %ecx
	movl	208(%rsi), %eax
	addq	$2, 136(%rsi)
	addl	%edx, %eax
	testl	%eax, %eax
	movl	%eax, 288(%rsi)
	setne	%cl
	cmpl	%edx, %eax
	sbbl	%eax, %eax
	andl	$2, %eax
	orl	%ecx, %eax
	movb	%al, 100(%rsi)
	ret
	.cfi_endproc
.LFE369:
	.size	s370_1EC2, .-s370_1EC2
	.p2align 4,,15
	.globl	s370_1EC3
	.type	s370_1EC3, @function
s370_1EC3:
.LFB370:
	.cfi_startproc
	movl	288(%rsi), %edx
	xorl	%ecx, %ecx
	movl	216(%rsi), %eax
	addq	$2, 136(%rsi)
	addl	%edx, %eax
	testl	%eax, %eax
	movl	%eax, 288(%rsi)
	setne	%cl
	cmpl	%edx, %eax
	sbbl	%eax, %eax
	andl	$2, %eax
	orl	%ecx, %eax
	movb	%al, 100(%rsi)
	ret
	.cfi_endproc
.LFE370:
	.size	s370_1EC3, .-s370_1EC3
	.p2align 4,,15
	.globl	s370_1EC4
	.type	s370_1EC4, @function
s370_1EC4:
.LFB371:
	.cfi_startproc
	movl	288(%rsi), %edx
	xorl	%ecx, %ecx
	movl	224(%rsi), %eax
	addq	$2, 136(%rsi)
	addl	%edx, %eax
	testl	%eax, %eax
	movl	%eax, 288(%rsi)
	setne	%cl
	cmpl	%edx, %eax
	sbbl	%eax, %eax
	andl	$2, %eax
	orl	%ecx, %eax
	movb	%al, 100(%rsi)
	ret
	.cfi_endproc
.LFE371:
	.size	s370_1EC4, .-s370_1EC4
	.p2align 4,,15
	.globl	s370_1EC5
	.type	s370_1EC5, @function
s370_1EC5:
.LFB372:
	.cfi_startproc
	movl	288(%rsi), %edx
	xorl	%ecx, %ecx
	movl	232(%rsi), %eax
	addq	$2, 136(%rsi)
	addl	%edx, %eax
	testl	%eax, %eax
	movl	%eax, 288(%rsi)
	setne	%cl
	cmpl	%edx, %eax
	sbbl	%eax, %eax
	andl	$2, %eax
	orl	%ecx, %eax
	movb	%al, 100(%rsi)
	ret
	.cfi_endproc
.LFE372:
	.size	s370_1EC5, .-s370_1EC5
	.p2align 4,,15
	.globl	s370_1EC6
	.type	s370_1EC6, @function
s370_1EC6:
.LFB373:
	.cfi_startproc
	movl	288(%rsi), %edx
	xorl	%ecx, %ecx
	movl	240(%rsi), %eax
	addq	$2, 136(%rsi)
	addl	%edx, %eax
	testl	%eax, %eax
	movl	%eax, 288(%rsi)
	setne	%cl
	cmpl	%edx, %eax
	sbbl	%eax, %eax
	andl	$2, %eax
	orl	%ecx, %eax
	movb	%al, 100(%rsi)
	ret
	.cfi_endproc
.LFE373:
	.size	s370_1EC6, .-s370_1EC6
	.p2align 4,,15
	.globl	s370_1EC7
	.type	s370_1EC7, @function
s370_1EC7:
.LFB374:
	.cfi_startproc
	movl	288(%rsi), %edx
	xorl	%ecx, %ecx
	movl	248(%rsi), %eax
	addq	$2, 136(%rsi)
	addl	%edx, %eax
	testl	%eax, %eax
	movl	%eax, 288(%rsi)
	setne	%cl
	cmpl	%edx, %eax
	sbbl	%eax, %eax
	andl	$2, %eax
	orl	%ecx, %eax
	movb	%al, 100(%rsi)
	ret
	.cfi_endproc
.LFE374:
	.size	s370_1EC7, .-s370_1EC7
	.p2align 4,,15
	.globl	s370_1EC8
	.type	s370_1EC8, @function
s370_1EC8:
.LFB375:
	.cfi_startproc
	movl	288(%rsi), %edx
	xorl	%ecx, %ecx
	movl	256(%rsi), %eax
	addq	$2, 136(%rsi)
	addl	%edx, %eax
	testl	%eax, %eax
	movl	%eax, 288(%rsi)
	setne	%cl
	cmpl	%edx, %eax
	sbbl	%eax, %eax
	andl	$2, %eax
	orl	%ecx, %eax
	movb	%al, 100(%rsi)
	ret
	.cfi_endproc
.LFE375:
	.size	s370_1EC8, .-s370_1EC8
	.p2align 4,,15
	.globl	s370_1EC9
	.type	s370_1EC9, @function
s370_1EC9:
.LFB376:
	.cfi_startproc
	movl	288(%rsi), %edx
	xorl	%ecx, %ecx
	movl	264(%rsi), %eax
	addq	$2, 136(%rsi)
	addl	%edx, %eax
	testl	%eax, %eax
	movl	%eax, 288(%rsi)
	setne	%cl
	cmpl	%edx, %eax
	sbbl	%eax, %eax
	andl	$2, %eax
	orl	%ecx, %eax
	movb	%al, 100(%rsi)
	ret
	.cfi_endproc
.LFE376:
	.size	s370_1EC9, .-s370_1EC9
	.p2align 4,,15
	.globl	s370_1ECA
	.type	s370_1ECA, @function
s370_1ECA:
.LFB377:
	.cfi_startproc
	movl	288(%rsi), %edx
	xorl	%ecx, %ecx
	movl	272(%rsi), %eax
	addq	$2, 136(%rsi)
	addl	%edx, %eax
	testl	%eax, %eax
	movl	%eax, 288(%rsi)
	setne	%cl
	cmpl	%edx, %eax
	sbbl	%eax, %eax
	andl	$2, %eax
	orl	%ecx, %eax
	movb	%al, 100(%rsi)
	ret
	.cfi_endproc
.LFE377:
	.size	s370_1ECA, .-s370_1ECA
	.p2align 4,,15
	.globl	s370_1ECB
	.type	s370_1ECB, @function
s370_1ECB:
.LFB378:
	.cfi_startproc
	movl	288(%rsi), %edx
	xorl	%ecx, %ecx
	movl	280(%rsi), %eax
	addq	$2, 136(%rsi)
	addl	%edx, %eax
	testl	%eax, %eax
	movl	%eax, 288(%rsi)
	setne	%cl
	cmpl	%edx, %eax
	sbbl	%eax, %eax
	andl	$2, %eax
	orl	%ecx, %eax
	movb	%al, 100(%rsi)
	ret
	.cfi_endproc
.LFE378:
	.size	s370_1ECB, .-s370_1ECB
	.p2align 4,,15
	.globl	s370_1ECC
	.type	s370_1ECC, @function
s370_1ECC:
.LFB379:
	.cfi_startproc
	movl	288(%rsi), %edx
	xorl	%ecx, %ecx
	addq	$2, 136(%rsi)
	leal	(%rdx,%rdx), %eax
	testl	%eax, %eax
	movl	%eax, 288(%rsi)
	setne	%cl
	cmpl	%edx, %eax
	sbbl	%eax, %eax
	andl	$2, %eax
	orl	%ecx, %eax
	movb	%al, 100(%rsi)
	ret
	.cfi_endproc
.LFE379:
	.size	s370_1ECC, .-s370_1ECC
	.p2align 4,,15
	.globl	s370_1ECD
	.type	s370_1ECD, @function
s370_1ECD:
.LFB380:
	.cfi_startproc
	movl	288(%rsi), %edx
	xorl	%ecx, %ecx
	movl	296(%rsi), %eax
	addq	$2, 136(%rsi)
	addl	%edx, %eax
	testl	%eax, %eax
	movl	%eax, 288(%rsi)
	setne	%cl
	cmpl	%edx, %eax
	sbbl	%eax, %eax
	andl	$2, %eax
	orl	%ecx, %eax
	movb	%al, 100(%rsi)
	ret
	.cfi_endproc
.LFE380:
	.size	s370_1ECD, .-s370_1ECD
	.p2align 4,,15
	.globl	s370_1ECE
	.type	s370_1ECE, @function
s370_1ECE:
.LFB381:
	.cfi_startproc
	movl	288(%rsi), %edx
	xorl	%ecx, %ecx
	movl	304(%rsi), %eax
	addq	$2, 136(%rsi)
	addl	%edx, %eax
	testl	%eax, %eax
	movl	%eax, 288(%rsi)
	setne	%cl
	cmpl	%edx, %eax
	sbbl	%eax, %eax
	andl	$2, %eax
	orl	%ecx, %eax
	movb	%al, 100(%rsi)
	ret
	.cfi_endproc
.LFE381:
	.size	s370_1ECE, .-s370_1ECE
	.p2align 4,,15
	.globl	s370_1ECF
	.type	s370_1ECF, @function
s370_1ECF:
.LFB382:
	.cfi_startproc
	movl	288(%rsi), %edx
	xorl	%ecx, %ecx
	movl	312(%rsi), %eax
	addq	$2, 136(%rsi)
	addl	%edx, %eax
	testl	%eax, %eax
	movl	%eax, 288(%rsi)
	setne	%cl
	cmpl	%edx, %eax
	sbbl	%eax, %eax
	andl	$2, %eax
	orl	%ecx, %eax
	movb	%al, 100(%rsi)
	ret
	.cfi_endproc
.LFE382:
	.size	s370_1ECF, .-s370_1ECF
	.p2align 4,,15
	.globl	s370_1ED0
	.type	s370_1ED0, @function
s370_1ED0:
.LFB383:
	.cfi_startproc
	movl	296(%rsi), %edx
	xorl	%ecx, %ecx
	movl	192(%rsi), %eax
	addq	$2, 136(%rsi)
	addl	%edx, %eax
	testl	%eax, %eax
	movl	%eax, 296(%rsi)
	setne	%cl
	cmpl	%edx, %eax
	sbbl	%eax, %eax
	andl	$2, %eax
	orl	%ecx, %eax
	movb	%al, 100(%rsi)
	ret
	.cfi_endproc
.LFE383:
	.size	s370_1ED0, .-s370_1ED0
	.p2align 4,,15
	.globl	s370_1ED1
	.type	s370_1ED1, @function
s370_1ED1:
.LFB384:
	.cfi_startproc
	movl	296(%rsi), %edx
	xorl	%ecx, %ecx
	movl	200(%rsi), %eax
	addq	$2, 136(%rsi)
	addl	%edx, %eax
	testl	%eax, %eax
	movl	%eax, 296(%rsi)
	setne	%cl
	cmpl	%edx, %eax
	sbbl	%eax, %eax
	andl	$2, %eax
	orl	%ecx, %eax
	movb	%al, 100(%rsi)
	ret
	.cfi_endproc
.LFE384:
	.size	s370_1ED1, .-s370_1ED1
	.p2align 4,,15
	.globl	s370_1ED2
	.type	s370_1ED2, @function
s370_1ED2:
.LFB385:
	.cfi_startproc
	movl	296(%rsi), %edx
	xorl	%ecx, %ecx
	movl	208(%rsi), %eax
	addq	$2, 136(%rsi)
	addl	%edx, %eax
	testl	%eax, %eax
	movl	%eax, 296(%rsi)
	setne	%cl
	cmpl	%edx, %eax
	sbbl	%eax, %eax
	andl	$2, %eax
	orl	%ecx, %eax
	movb	%al, 100(%rsi)
	ret
	.cfi_endproc
.LFE385:
	.size	s370_1ED2, .-s370_1ED2
	.p2align 4,,15
	.globl	s370_1ED3
	.type	s370_1ED3, @function
s370_1ED3:
.LFB386:
	.cfi_startproc
	movl	296(%rsi), %edx
	xorl	%ecx, %ecx
	movl	216(%rsi), %eax
	addq	$2, 136(%rsi)
	addl	%edx, %eax
	testl	%eax, %eax
	movl	%eax, 296(%rsi)
	setne	%cl
	cmpl	%edx, %eax
	sbbl	%eax, %eax
	andl	$2, %eax
	orl	%ecx, %eax
	movb	%al, 100(%rsi)
	ret
	.cfi_endproc
.LFE386:
	.size	s370_1ED3, .-s370_1ED3
	.p2align 4,,15
	.globl	s370_1ED4
	.type	s370_1ED4, @function
s370_1ED4:
.LFB387:
	.cfi_startproc
	movl	296(%rsi), %edx
	xorl	%ecx, %ecx
	movl	224(%rsi), %eax
	addq	$2, 136(%rsi)
	addl	%edx, %eax
	testl	%eax, %eax
	movl	%eax, 296(%rsi)
	setne	%cl
	cmpl	%edx, %eax
	sbbl	%eax, %eax
	andl	$2, %eax
	orl	%ecx, %eax
	movb	%al, 100(%rsi)
	ret
	.cfi_endproc
.LFE387:
	.size	s370_1ED4, .-s370_1ED4
	.p2align 4,,15
	.globl	s370_1ED5
	.type	s370_1ED5, @function
s370_1ED5:
.LFB388:
	.cfi_startproc
	movl	296(%rsi), %edx
	xorl	%ecx, %ecx
	movl	232(%rsi), %eax
	addq	$2, 136(%rsi)
	addl	%edx, %eax
	testl	%eax, %eax
	movl	%eax, 296(%rsi)
	setne	%cl
	cmpl	%edx, %eax
	sbbl	%eax, %eax
	andl	$2, %eax
	orl	%ecx, %eax
	movb	%al, 100(%rsi)
	ret
	.cfi_endproc
.LFE388:
	.size	s370_1ED5, .-s370_1ED5
	.p2align 4,,15
	.globl	s370_1ED6
	.type	s370_1ED6, @function
s370_1ED6:
.LFB389:
	.cfi_startproc
	movl	296(%rsi), %edx
	xorl	%ecx, %ecx
	movl	240(%rsi), %eax
	addq	$2, 136(%rsi)
	addl	%edx, %eax
	testl	%eax, %eax
	movl	%eax, 296(%rsi)
	setne	%cl
	cmpl	%edx, %eax
	sbbl	%eax, %eax
	andl	$2, %eax
	orl	%ecx, %eax
	movb	%al, 100(%rsi)
	ret
	.cfi_endproc
.LFE389:
	.size	s370_1ED6, .-s370_1ED6
	.p2align 4,,15
	.globl	s370_1ED7
	.type	s370_1ED7, @function
s370_1ED7:
.LFB390:
	.cfi_startproc
	movl	296(%rsi), %edx
	xorl	%ecx, %ecx
	movl	248(%rsi), %eax
	addq	$2, 136(%rsi)
	addl	%edx, %eax
	testl	%eax, %eax
	movl	%eax, 296(%rsi)
	setne	%cl
	cmpl	%edx, %eax
	sbbl	%eax, %eax
	andl	$2, %eax
	orl	%ecx, %eax
	movb	%al, 100(%rsi)
	ret
	.cfi_endproc
.LFE390:
	.size	s370_1ED7, .-s370_1ED7
	.p2align 4,,15
	.globl	s370_1ED8
	.type	s370_1ED8, @function
s370_1ED8:
.LFB391:
	.cfi_startproc
	movl	296(%rsi), %edx
	xorl	%ecx, %ecx
	movl	256(%rsi), %eax
	addq	$2, 136(%rsi)
	addl	%edx, %eax
	testl	%eax, %eax
	movl	%eax, 296(%rsi)
	setne	%cl
	cmpl	%edx, %eax
	sbbl	%eax, %eax
	andl	$2, %eax
	orl	%ecx, %eax
	movb	%al, 100(%rsi)
	ret
	.cfi_endproc
.LFE391:
	.size	s370_1ED8, .-s370_1ED8
	.p2align 4,,15
	.globl	s370_1ED9
	.type	s370_1ED9, @function
s370_1ED9:
.LFB392:
	.cfi_startproc
	movl	296(%rsi), %edx
	xorl	%ecx, %ecx
	movl	264(%rsi), %eax
	addq	$2, 136(%rsi)
	addl	%edx, %eax
	testl	%eax, %eax
	movl	%eax, 296(%rsi)
	setne	%cl
	cmpl	%edx, %eax
	sbbl	%eax, %eax
	andl	$2, %eax
	orl	%ecx, %eax
	movb	%al, 100(%rsi)
	ret
	.cfi_endproc
.LFE392:
	.size	s370_1ED9, .-s370_1ED9
	.p2align 4,,15
	.globl	s370_1EDA
	.type	s370_1EDA, @function
s370_1EDA:
.LFB393:
	.cfi_startproc
	movl	296(%rsi), %edx
	xorl	%ecx, %ecx
	movl	272(%rsi), %eax
	addq	$2, 136(%rsi)
	addl	%edx, %eax
	testl	%eax, %eax
	movl	%eax, 296(%rsi)
	setne	%cl
	cmpl	%edx, %eax
	sbbl	%eax, %eax
	andl	$2, %eax
	orl	%ecx, %eax
	movb	%al, 100(%rsi)
	ret
	.cfi_endproc
.LFE393:
	.size	s370_1EDA, .-s370_1EDA
	.p2align 4,,15
	.globl	s370_1EDB
	.type	s370_1EDB, @function
s370_1EDB:
.LFB394:
	.cfi_startproc
	movl	296(%rsi), %edx
	xorl	%ecx, %ecx
	movl	280(%rsi), %eax
	addq	$2, 136(%rsi)
	addl	%edx, %eax
	testl	%eax, %eax
	movl	%eax, 296(%rsi)
	setne	%cl
	cmpl	%edx, %eax
	sbbl	%eax, %eax
	andl	$2, %eax
	orl	%ecx, %eax
	movb	%al, 100(%rsi)
	ret
	.cfi_endproc
.LFE394:
	.size	s370_1EDB, .-s370_1EDB
	.p2align 4,,15
	.globl	s370_1EDC
	.type	s370_1EDC, @function
s370_1EDC:
.LFB395:
	.cfi_startproc
	movl	296(%rsi), %edx
	xorl	%ecx, %ecx
	movl	288(%rsi), %eax
	addq	$2, 136(%rsi)
	addl	%edx, %eax
	testl	%eax, %eax
	movl	%eax, 296(%rsi)
	setne	%cl
	cmpl	%edx, %eax
	sbbl	%eax, %eax
	andl	$2, %eax
	orl	%ecx, %eax
	movb	%al, 100(%rsi)
	ret
	.cfi_endproc
.LFE395:
	.size	s370_1EDC, .-s370_1EDC
	.p2align 4,,15
	.globl	s370_1EDD
	.type	s370_1EDD, @function
s370_1EDD:
.LFB396:
	.cfi_startproc
	movl	296(%rsi), %edx
	xorl	%ecx, %ecx
	addq	$2, 136(%rsi)
	leal	(%rdx,%rdx), %eax
	testl	%eax, %eax
	movl	%eax, 296(%rsi)
	setne	%cl
	cmpl	%edx, %eax
	sbbl	%eax, %eax
	andl	$2, %eax
	orl	%ecx, %eax
	movb	%al, 100(%rsi)
	ret
	.cfi_endproc
.LFE396:
	.size	s370_1EDD, .-s370_1EDD
	.p2align 4,,15
	.globl	s370_1EDE
	.type	s370_1EDE, @function
s370_1EDE:
.LFB397:
	.cfi_startproc
	movl	296(%rsi), %edx
	xorl	%ecx, %ecx
	movl	304(%rsi), %eax
	addq	$2, 136(%rsi)
	addl	%edx, %eax
	testl	%eax, %eax
	movl	%eax, 296(%rsi)
	setne	%cl
	cmpl	%edx, %eax
	sbbl	%eax, %eax
	andl	$2, %eax
	orl	%ecx, %eax
	movb	%al, 100(%rsi)
	ret
	.cfi_endproc
.LFE397:
	.size	s370_1EDE, .-s370_1EDE
	.p2align 4,,15
	.globl	s370_1EDF
	.type	s370_1EDF, @function
s370_1EDF:
.LFB398:
	.cfi_startproc
	movl	296(%rsi), %edx
	xorl	%ecx, %ecx
	movl	312(%rsi), %eax
	addq	$2, 136(%rsi)
	addl	%edx, %eax
	testl	%eax, %eax
	movl	%eax, 296(%rsi)
	setne	%cl
	cmpl	%edx, %eax
	sbbl	%eax, %eax
	andl	$2, %eax
	orl	%ecx, %eax
	movb	%al, 100(%rsi)
	ret
	.cfi_endproc
.LFE398:
	.size	s370_1EDF, .-s370_1EDF
	.p2align 4,,15
	.globl	s370_1EE0
	.type	s370_1EE0, @function
s370_1EE0:
.LFB399:
	.cfi_startproc
	movl	304(%rsi), %edx
	xorl	%ecx, %ecx
	movl	192(%rsi), %eax
	addq	$2, 136(%rsi)
	addl	%edx, %eax
	testl	%eax, %eax
	movl	%eax, 304(%rsi)
	setne	%cl
	cmpl	%edx, %eax
	sbbl	%eax, %eax
	andl	$2, %eax
	orl	%ecx, %eax
	movb	%al, 100(%rsi)
	ret
	.cfi_endproc
.LFE399:
	.size	s370_1EE0, .-s370_1EE0
	.p2align 4,,15
	.globl	s370_1EE1
	.type	s370_1EE1, @function
s370_1EE1:
.LFB400:
	.cfi_startproc
	movl	304(%rsi), %edx
	xorl	%ecx, %ecx
	movl	200(%rsi), %eax
	addq	$2, 136(%rsi)
	addl	%edx, %eax
	testl	%eax, %eax
	movl	%eax, 304(%rsi)
	setne	%cl
	cmpl	%edx, %eax
	sbbl	%eax, %eax
	andl	$2, %eax
	orl	%ecx, %eax
	movb	%al, 100(%rsi)
	ret
	.cfi_endproc
.LFE400:
	.size	s370_1EE1, .-s370_1EE1
	.p2align 4,,15
	.globl	s370_1EE2
	.type	s370_1EE2, @function
s370_1EE2:
.LFB401:
	.cfi_startproc
	movl	304(%rsi), %edx
	xorl	%ecx, %ecx
	movl	208(%rsi), %eax
	addq	$2, 136(%rsi)
	addl	%edx, %eax
	testl	%eax, %eax
	movl	%eax, 304(%rsi)
	setne	%cl
	cmpl	%edx, %eax
	sbbl	%eax, %eax
	andl	$2, %eax
	orl	%ecx, %eax
	movb	%al, 100(%rsi)
	ret
	.cfi_endproc
.LFE401:
	.size	s370_1EE2, .-s370_1EE2
	.p2align 4,,15
	.globl	s370_1EE3
	.type	s370_1EE3, @function
s370_1EE3:
.LFB402:
	.cfi_startproc
	movl	304(%rsi), %edx
	xorl	%ecx, %ecx
	movl	216(%rsi), %eax
	addq	$2, 136(%rsi)
	addl	%edx, %eax
	testl	%eax, %eax
	movl	%eax, 304(%rsi)
	setne	%cl
	cmpl	%edx, %eax
	sbbl	%eax, %eax
	andl	$2, %eax
	orl	%ecx, %eax
	movb	%al, 100(%rsi)
	ret
	.cfi_endproc
.LFE402:
	.size	s370_1EE3, .-s370_1EE3
	.p2align 4,,15
	.globl	s370_1EE4
	.type	s370_1EE4, @function
s370_1EE4:
.LFB403:
	.cfi_startproc
	movl	304(%rsi), %edx
	xorl	%ecx, %ecx
	movl	224(%rsi), %eax
	addq	$2, 136(%rsi)
	addl	%edx, %eax
	testl	%eax, %eax
	movl	%eax, 304(%rsi)
	setne	%cl
	cmpl	%edx, %eax
	sbbl	%eax, %eax
	andl	$2, %eax
	orl	%ecx, %eax
	movb	%al, 100(%rsi)
	ret
	.cfi_endproc
.LFE403:
	.size	s370_1EE4, .-s370_1EE4
	.p2align 4,,15
	.globl	s370_1EE5
	.type	s370_1EE5, @function
s370_1EE5:
.LFB404:
	.cfi_startproc
	movl	304(%rsi), %edx
	xorl	%ecx, %ecx
	movl	232(%rsi), %eax
	addq	$2, 136(%rsi)
	addl	%edx, %eax
	testl	%eax, %eax
	movl	%eax, 304(%rsi)
	setne	%cl
	cmpl	%edx, %eax
	sbbl	%eax, %eax
	andl	$2, %eax
	orl	%ecx, %eax
	movb	%al, 100(%rsi)
	ret
	.cfi_endproc
.LFE404:
	.size	s370_1EE5, .-s370_1EE5
	.p2align 4,,15
	.globl	s370_1EE6
	.type	s370_1EE6, @function
s370_1EE6:
.LFB405:
	.cfi_startproc
	movl	304(%rsi), %edx
	xorl	%ecx, %ecx
	movl	240(%rsi), %eax
	addq	$2, 136(%rsi)
	addl	%edx, %eax
	testl	%eax, %eax
	movl	%eax, 304(%rsi)
	setne	%cl
	cmpl	%edx, %eax
	sbbl	%eax, %eax
	andl	$2, %eax
	orl	%ecx, %eax
	movb	%al, 100(%rsi)
	ret
	.cfi_endproc
.LFE405:
	.size	s370_1EE6, .-s370_1EE6
	.p2align 4,,15
	.globl	s370_1EE7
	.type	s370_1EE7, @function
s370_1EE7:
.LFB406:
	.cfi_startproc
	movl	304(%rsi), %edx
	xorl	%ecx, %ecx
	movl	248(%rsi), %eax
	addq	$2, 136(%rsi)
	addl	%edx, %eax
	testl	%eax, %eax
	movl	%eax, 304(%rsi)
	setne	%cl
	cmpl	%edx, %eax
	sbbl	%eax, %eax
	andl	$2, %eax
	orl	%ecx, %eax
	movb	%al, 100(%rsi)
	ret
	.cfi_endproc
.LFE406:
	.size	s370_1EE7, .-s370_1EE7
	.p2align 4,,15
	.globl	s370_1EE8
	.type	s370_1EE8, @function
s370_1EE8:
.LFB407:
	.cfi_startproc
	movl	304(%rsi), %edx
	xorl	%ecx, %ecx
	movl	256(%rsi), %eax
	addq	$2, 136(%rsi)
	addl	%edx, %eax
	testl	%eax, %eax
	movl	%eax, 304(%rsi)
	setne	%cl
	cmpl	%edx, %eax
	sbbl	%eax, %eax
	andl	$2, %eax
	orl	%ecx, %eax
	movb	%al, 100(%rsi)
	ret
	.cfi_endproc
.LFE407:
	.size	s370_1EE8, .-s370_1EE8
	.p2align 4,,15
	.globl	s370_1EE9
	.type	s370_1EE9, @function
s370_1EE9:
.LFB408:
	.cfi_startproc
	movl	304(%rsi), %edx
	xorl	%ecx, %ecx
	movl	264(%rsi), %eax
	addq	$2, 136(%rsi)
	addl	%edx, %eax
	testl	%eax, %eax
	movl	%eax, 304(%rsi)
	setne	%cl
	cmpl	%edx, %eax
	sbbl	%eax, %eax
	andl	$2, %eax
	orl	%ecx, %eax
	movb	%al, 100(%rsi)
	ret
	.cfi_endproc
.LFE408:
	.size	s370_1EE9, .-s370_1EE9
	.p2align 4,,15
	.globl	s370_1EEA
	.type	s370_1EEA, @function
s370_1EEA:
.LFB409:
	.cfi_startproc
	movl	304(%rsi), %edx
	xorl	%ecx, %ecx
	movl	272(%rsi), %eax
	addq	$2, 136(%rsi)
	addl	%edx, %eax
	testl	%eax, %eax
	movl	%eax, 304(%rsi)
	setne	%cl
	cmpl	%edx, %eax
	sbbl	%eax, %eax
	andl	$2, %eax
	orl	%ecx, %eax
	movb	%al, 100(%rsi)
	ret
	.cfi_endproc
.LFE409:
	.size	s370_1EEA, .-s370_1EEA
	.p2align 4,,15
	.globl	s370_1EEB
	.type	s370_1EEB, @function
s370_1EEB:
.LFB410:
	.cfi_startproc
	movl	304(%rsi), %edx
	xorl	%ecx, %ecx
	movl	280(%rsi), %eax
	addq	$2, 136(%rsi)
	addl	%edx, %eax
	testl	%eax, %eax
	movl	%eax, 304(%rsi)
	setne	%cl
	cmpl	%edx, %eax
	sbbl	%eax, %eax
	andl	$2, %eax
	orl	%ecx, %eax
	movb	%al, 100(%rsi)
	ret
	.cfi_endproc
.LFE410:
	.size	s370_1EEB, .-s370_1EEB
	.p2align 4,,15
	.globl	s370_1EEC
	.type	s370_1EEC, @function
s370_1EEC:
.LFB411:
	.cfi_startproc
	movl	304(%rsi), %edx
	xorl	%ecx, %ecx
	movl	288(%rsi), %eax
	addq	$2, 136(%rsi)
	addl	%edx, %eax
	testl	%eax, %eax
	movl	%eax, 304(%rsi)
	setne	%cl
	cmpl	%edx, %eax
	sbbl	%eax, %eax
	andl	$2, %eax
	orl	%ecx, %eax
	movb	%al, 100(%rsi)
	ret
	.cfi_endproc
.LFE411:
	.size	s370_1EEC, .-s370_1EEC
	.p2align 4,,15
	.globl	s370_1EED
	.type	s370_1EED, @function
s370_1EED:
.LFB412:
	.cfi_startproc
	movl	304(%rsi), %edx
	xorl	%ecx, %ecx
	movl	296(%rsi), %eax
	addq	$2, 136(%rsi)
	addl	%edx, %eax
	testl	%eax, %eax
	movl	%eax, 304(%rsi)
	setne	%cl
	cmpl	%edx, %eax
	sbbl	%eax, %eax
	andl	$2, %eax
	orl	%ecx, %eax
	movb	%al, 100(%rsi)
	ret
	.cfi_endproc
.LFE412:
	.size	s370_1EED, .-s370_1EED
	.p2align 4,,15
	.globl	s370_1EEE
	.type	s370_1EEE, @function
s370_1EEE:
.LFB413:
	.cfi_startproc
	movl	304(%rsi), %edx
	xorl	%ecx, %ecx
	addq	$2, 136(%rsi)
	leal	(%rdx,%rdx), %eax
	testl	%eax, %eax
	movl	%eax, 304(%rsi)
	setne	%cl
	cmpl	%edx, %eax
	sbbl	%eax, %eax
	andl	$2, %eax
	orl	%ecx, %eax
	movb	%al, 100(%rsi)
	ret
	.cfi_endproc
.LFE413:
	.size	s370_1EEE, .-s370_1EEE
	.p2align 4,,15
	.globl	s370_1EEF
	.type	s370_1EEF, @function
s370_1EEF:
.LFB414:
	.cfi_startproc
	movl	304(%rsi), %edx
	xorl	%ecx, %ecx
	movl	312(%rsi), %eax
	addq	$2, 136(%rsi)
	addl	%edx, %eax
	testl	%eax, %eax
	movl	%eax, 304(%rsi)
	setne	%cl
	cmpl	%edx, %eax
	sbbl	%eax, %eax
	andl	$2, %eax
	orl	%ecx, %eax
	movb	%al, 100(%rsi)
	ret
	.cfi_endproc
.LFE414:
	.size	s370_1EEF, .-s370_1EEF
	.p2align 4,,15
	.globl	s370_1EF0
	.type	s370_1EF0, @function
s370_1EF0:
.LFB415:
	.cfi_startproc
	movl	312(%rsi), %edx
	xorl	%ecx, %ecx
	movl	192(%rsi), %eax
	addq	$2, 136(%rsi)
	addl	%edx, %eax
	testl	%eax, %eax
	movl	%eax, 312(%rsi)
	setne	%cl
	cmpl	%edx, %eax
	sbbl	%eax, %eax
	andl	$2, %eax
	orl	%ecx, %eax
	movb	%al, 100(%rsi)
	ret
	.cfi_endproc
.LFE415:
	.size	s370_1EF0, .-s370_1EF0
	.p2align 4,,15
	.globl	s370_1EF1
	.type	s370_1EF1, @function
s370_1EF1:
.LFB416:
	.cfi_startproc
	movl	312(%rsi), %edx
	xorl	%ecx, %ecx
	movl	200(%rsi), %eax
	addq	$2, 136(%rsi)
	addl	%edx, %eax
	testl	%eax, %eax
	movl	%eax, 312(%rsi)
	setne	%cl
	cmpl	%edx, %eax
	sbbl	%eax, %eax
	andl	$2, %eax
	orl	%ecx, %eax
	movb	%al, 100(%rsi)
	ret
	.cfi_endproc
.LFE416:
	.size	s370_1EF1, .-s370_1EF1
	.p2align 4,,15
	.globl	s370_1EF2
	.type	s370_1EF2, @function
s370_1EF2:
.LFB417:
	.cfi_startproc
	movl	312(%rsi), %edx
	xorl	%ecx, %ecx
	movl	208(%rsi), %eax
	addq	$2, 136(%rsi)
	addl	%edx, %eax
	testl	%eax, %eax
	movl	%eax, 312(%rsi)
	setne	%cl
	cmpl	%edx, %eax
	sbbl	%eax, %eax
	andl	$2, %eax
	orl	%ecx, %eax
	movb	%al, 100(%rsi)
	ret
	.cfi_endproc
.LFE417:
	.size	s370_1EF2, .-s370_1EF2
	.p2align 4,,15
	.globl	s370_1EF3
	.type	s370_1EF3, @function
s370_1EF3:
.LFB418:
	.cfi_startproc
	movl	312(%rsi), %edx
	xorl	%ecx, %ecx
	movl	216(%rsi), %eax
	addq	$2, 136(%rsi)
	addl	%edx, %eax
	testl	%eax, %eax
	movl	%eax, 312(%rsi)
	setne	%cl
	cmpl	%edx, %eax
	sbbl	%eax, %eax
	andl	$2, %eax
	orl	%ecx, %eax
	movb	%al, 100(%rsi)
	ret
	.cfi_endproc
.LFE418:
	.size	s370_1EF3, .-s370_1EF3
	.p2align 4,,15
	.globl	s370_1EF4
	.type	s370_1EF4, @function
s370_1EF4:
.LFB419:
	.cfi_startproc
	movl	312(%rsi), %edx
	xorl	%ecx, %ecx
	movl	224(%rsi), %eax
	addq	$2, 136(%rsi)
	addl	%edx, %eax
	testl	%eax, %eax
	movl	%eax, 312(%rsi)
	setne	%cl
	cmpl	%edx, %eax
	sbbl	%eax, %eax
	andl	$2, %eax
	orl	%ecx, %eax
	movb	%al, 100(%rsi)
	ret
	.cfi_endproc
.LFE419:
	.size	s370_1EF4, .-s370_1EF4
	.p2align 4,,15
	.globl	s370_1EF5
	.type	s370_1EF5, @function
s370_1EF5:
.LFB420:
	.cfi_startproc
	movl	312(%rsi), %edx
	xorl	%ecx, %ecx
	movl	232(%rsi), %eax
	addq	$2, 136(%rsi)
	addl	%edx, %eax
	testl	%eax, %eax
	movl	%eax, 312(%rsi)
	setne	%cl
	cmpl	%edx, %eax
	sbbl	%eax, %eax
	andl	$2, %eax
	orl	%ecx, %eax
	movb	%al, 100(%rsi)
	ret
	.cfi_endproc
.LFE420:
	.size	s370_1EF5, .-s370_1EF5
	.p2align 4,,15
	.globl	s370_1EF6
	.type	s370_1EF6, @function
s370_1EF6:
.LFB421:
	.cfi_startproc
	movl	312(%rsi), %edx
	xorl	%ecx, %ecx
	movl	240(%rsi), %eax
	addq	$2, 136(%rsi)
	addl	%edx, %eax
	testl	%eax, %eax
	movl	%eax, 312(%rsi)
	setne	%cl
	cmpl	%edx, %eax
	sbbl	%eax, %eax
	andl	$2, %eax
	orl	%ecx, %eax
	movb	%al, 100(%rsi)
	ret
	.cfi_endproc
.LFE421:
	.size	s370_1EF6, .-s370_1EF6
	.p2align 4,,15
	.globl	s370_1EF7
	.type	s370_1EF7, @function
s370_1EF7:
.LFB422:
	.cfi_startproc
	movl	312(%rsi), %edx
	xorl	%ecx, %ecx
	movl	248(%rsi), %eax
	addq	$2, 136(%rsi)
	addl	%edx, %eax
	testl	%eax, %eax
	movl	%eax, 312(%rsi)
	setne	%cl
	cmpl	%edx, %eax
	sbbl	%eax, %eax
	andl	$2, %eax
	orl	%ecx, %eax
	movb	%al, 100(%rsi)
	ret
	.cfi_endproc
.LFE422:
	.size	s370_1EF7, .-s370_1EF7
	.p2align 4,,15
	.globl	s370_1EF8
	.type	s370_1EF8, @function
s370_1EF8:
.LFB423:
	.cfi_startproc
	movl	312(%rsi), %edx
	xorl	%ecx, %ecx
	movl	256(%rsi), %eax
	addq	$2, 136(%rsi)
	addl	%edx, %eax
	testl	%eax, %eax
	movl	%eax, 312(%rsi)
	setne	%cl
	cmpl	%edx, %eax
	sbbl	%eax, %eax
	andl	$2, %eax
	orl	%ecx, %eax
	movb	%al, 100(%rsi)
	ret
	.cfi_endproc
.LFE423:
	.size	s370_1EF8, .-s370_1EF8
	.p2align 4,,15
	.globl	s370_1EF9
	.type	s370_1EF9, @function
s370_1EF9:
.LFB424:
	.cfi_startproc
	movl	312(%rsi), %edx
	xorl	%ecx, %ecx
	movl	264(%rsi), %eax
	addq	$2, 136(%rsi)
	addl	%edx, %eax
	testl	%eax, %eax
	movl	%eax, 312(%rsi)
	setne	%cl
	cmpl	%edx, %eax
	sbbl	%eax, %eax
	andl	$2, %eax
	orl	%ecx, %eax
	movb	%al, 100(%rsi)
	ret
	.cfi_endproc
.LFE424:
	.size	s370_1EF9, .-s370_1EF9
	.p2align 4,,15
	.globl	s370_1EFA
	.type	s370_1EFA, @function
s370_1EFA:
.LFB425:
	.cfi_startproc
	movl	312(%rsi), %edx
	xorl	%ecx, %ecx
	movl	272(%rsi), %eax
	addq	$2, 136(%rsi)
	addl	%edx, %eax
	testl	%eax, %eax
	movl	%eax, 312(%rsi)
	setne	%cl
	cmpl	%edx, %eax
	sbbl	%eax, %eax
	andl	$2, %eax
	orl	%ecx, %eax
	movb	%al, 100(%rsi)
	ret
	.cfi_endproc
.LFE425:
	.size	s370_1EFA, .-s370_1EFA
	.p2align 4,,15
	.globl	s370_1EFB
	.type	s370_1EFB, @function
s370_1EFB:
.LFB426:
	.cfi_startproc
	movl	312(%rsi), %edx
	xorl	%ecx, %ecx
	movl	280(%rsi), %eax
	addq	$2, 136(%rsi)
	addl	%edx, %eax
	testl	%eax, %eax
	movl	%eax, 312(%rsi)
	setne	%cl
	cmpl	%edx, %eax
	sbbl	%eax, %eax
	andl	$2, %eax
	orl	%ecx, %eax
	movb	%al, 100(%rsi)
	ret
	.cfi_endproc
.LFE426:
	.size	s370_1EFB, .-s370_1EFB
	.p2align 4,,15
	.globl	s370_1EFC
	.type	s370_1EFC, @function
s370_1EFC:
.LFB427:
	.cfi_startproc
	movl	312(%rsi), %edx
	xorl	%ecx, %ecx
	movl	288(%rsi), %eax
	addq	$2, 136(%rsi)
	addl	%edx, %eax
	testl	%eax, %eax
	movl	%eax, 312(%rsi)
	setne	%cl
	cmpl	%edx, %eax
	sbbl	%eax, %eax
	andl	$2, %eax
	orl	%ecx, %eax
	movb	%al, 100(%rsi)
	ret
	.cfi_endproc
.LFE427:
	.size	s370_1EFC, .-s370_1EFC
	.p2align 4,,15
	.globl	s370_1EFD
	.type	s370_1EFD, @function
s370_1EFD:
.LFB428:
	.cfi_startproc
	movl	312(%rsi), %edx
	xorl	%ecx, %ecx
	movl	296(%rsi), %eax
	addq	$2, 136(%rsi)
	addl	%edx, %eax
	testl	%eax, %eax
	movl	%eax, 312(%rsi)
	setne	%cl
	cmpl	%edx, %eax
	sbbl	%eax, %eax
	andl	$2, %eax
	orl	%ecx, %eax
	movb	%al, 100(%rsi)
	ret
	.cfi_endproc
.LFE428:
	.size	s370_1EFD, .-s370_1EFD
	.p2align 4,,15
	.globl	s370_1EFE
	.type	s370_1EFE, @function
s370_1EFE:
.LFB429:
	.cfi_startproc
	movl	312(%rsi), %edx
	xorl	%ecx, %ecx
	movl	304(%rsi), %eax
	addq	$2, 136(%rsi)
	addl	%edx, %eax
	testl	%eax, %eax
	movl	%eax, 312(%rsi)
	setne	%cl
	cmpl	%edx, %eax
	sbbl	%eax, %eax
	andl	$2, %eax
	orl	%ecx, %eax
	movb	%al, 100(%rsi)
	ret
	.cfi_endproc
.LFE429:
	.size	s370_1EFE, .-s370_1EFE
	.p2align 4,,15
	.globl	s370_1EFF
	.type	s370_1EFF, @function
s370_1EFF:
.LFB430:
	.cfi_startproc
	movl	312(%rsi), %edx
	xorl	%ecx, %ecx
	addq	$2, 136(%rsi)
	leal	(%rdx,%rdx), %eax
	testl	%eax, %eax
	movl	%eax, 312(%rsi)
	setne	%cl
	cmpl	%edx, %eax
	sbbl	%eax, %eax
	andl	$2, %eax
	orl	%ecx, %eax
	movb	%al, 100(%rsi)
	ret
	.cfi_endproc
.LFE430:
	.size	s370_1EFF, .-s370_1EFF
	.p2align 4,,15
	.globl	s370_and_register
	.type	s370_and_register, @function
s370_and_register:
.LFB431:
	.cfi_startproc
